	.file	"emu.c"
	.section	.rodata.str1.1,"aMS",@progbits,1
.LC0:
	.string	"Emulator, nbip_error"
.LC1:
	.string	"Assertion Failed"
.LC2:
	.string	"Emulator"
.LC3:
	.string	"Debug Assertion Failed"
.LC4:
	.string	"call"
	.text
	.p2align 4,,15
	.globl	ec_emulate
	.type	ec_emulate, @function
ec_emulate:
.LFB0:
	.cfi_startproc
	movq	op_addr@GOTPCREL(%rip), %rax
	cmpq	$0, (%rax)
	jne	.L2
	leaq	.L3(%rip), %rdx
	movq	%rdx, (%rax)
	leaq	.L4(%rip), %rdi
	movq	%rdi, 8(%rax)
	leaq	.L5(%rip), %rdi
	movq	%rdi, 16(%rax)
	leaq	.L6(%rip), %rdi
	movq	%rdi, 24(%rax)
	leaq	.L7(%rip), %rdi
	movq	%rdi, 32(%rax)
	leaq	.L8(%rip), %rdi
	movq	%rdi, 40(%rax)
	leaq	.L9(%rip), %rdi
	movq	%rdi, 48(%rax)
	leaq	.L10(%rip), %rdi
	movq	%rdi, 56(%rax)
	leaq	.L11(%rip), %rdi
	movq	%rdi, 64(%rax)
	leaq	.L12(%rip), %rdi
	movq	%rdi, 72(%rax)
	leaq	.L13(%rip), %rsi
	movq	%rsi, 80(%rax)
	leaq	.L14(%rip), %rdi
	movq	%rdi, 88(%rax)
	leaq	.L15(%rip), %rsi
	movq	%rsi, 96(%rax)
	leaq	.L16(%rip), %rdi
	movq	%rdi, 104(%rax)
	leaq	.L17(%rip), %rsi
	movq	%rsi, 112(%rax)
	leaq	.L18(%rip), %rdi
	movq	%rdi, 120(%rax)
	leaq	.L19(%rip), %rsi
	movq	%rsi, 128(%rax)
	leaq	.L20(%rip), %rdi
	movq	%rdi, 136(%rax)
	leaq	.L21(%rip), %rsi
	movq	%rsi, 144(%rax)
	leaq	.L22(%rip), %rdi
	movq	%rdi, 152(%rax)
	leaq	.L23(%rip), %rsi
	movq	%rsi, 160(%rax)
	leaq	.L24(%rip), %rdi
	movq	%rdi, 168(%rax)
	leaq	.L25(%rip), %rsi
	movq	%rsi, 176(%rax)
	leaq	.L26(%rip), %rdi
	movq	%rdi, 184(%rax)
	leaq	.L27(%rip), %rsi
	movq	%rsi, 192(%rax)
	leaq	.L28(%rip), %rdi
	movq	%rdi, 200(%rax)
	leaq	.L29(%rip), %rsi
	movq	%rsi, 208(%rax)
	leaq	.L30(%rip), %rdi
	movq	%rdi, 216(%rax)
	leaq	.L31(%rip), %rsi
	movq	%rsi, 224(%rax)
	leaq	.L32(%rip), %rdi
	movq	%rdi, 232(%rax)
	leaq	.L33(%rip), %rsi
	movq	%rsi, 240(%rax)
	leaq	.L34(%rip), %rdi
	movq	%rdi, 248(%rax)
	leaq	.L35(%rip), %rsi
	movq	%rsi, 256(%rax)
	leaq	.L36(%rip), %rdi
	movq	%rdi, 264(%rax)
	leaq	.L37(%rip), %rsi
	movq	%rsi, 272(%rax)
	leaq	.L38(%rip), %rdi
	movq	%rdi, 280(%rax)
	leaq	.L39(%rip), %rsi
	movq	%rsi, 288(%rax)
	leaq	.L40(%rip), %rdi
	movq	%rdi, 296(%rax)
	leaq	.L41(%rip), %rsi
	movq	%rsi, 304(%rax)
	leaq	.L42(%rip), %rdi
	movq	%rdi, 312(%rax)
	leaq	.L43(%rip), %rsi
	movq	%rsi, 320(%rax)
	leaq	.L44(%rip), %rdi
	movq	%rdi, 328(%rax)
	leaq	.L45(%rip), %rsi
	movq	%rsi, 336(%rax)
	leaq	.L46(%rip), %rdi
	movq	%rdi, 344(%rax)
	leaq	.L47(%rip), %rsi
	movq	%rsi, 352(%rax)
	leaq	.L48(%rip), %rdi
	movq	%rdi, 360(%rax)
	leaq	.L49(%rip), %rsi
	movq	%rsi, 368(%rax)
	leaq	.L50(%rip), %rdi
	movq	%rdi, 376(%rax)
	leaq	.L51(%rip), %rsi
	movq	%rsi, 384(%rax)
	leaq	.L52(%rip), %rdi
	movq	%rdi, 392(%rax)
	leaq	.L53(%rip), %rsi
	movq	%rsi, 400(%rax)
	leaq	.L54(%rip), %rdi
	movq	%rdi, 408(%rax)
	leaq	.L55(%rip), %rsi
	movq	%rsi, 416(%rax)
	leaq	.L56(%rip), %rdi
	movq	%rdi, 424(%rax)
	leaq	.L57(%rip), %rsi
	movq	%rsi, 432(%rax)
	leaq	.L58(%rip), %rdi
	movq	%rdi, 440(%rax)
	leaq	.L59(%rip), %rsi
	movq	%rsi, 448(%rax)
	leaq	.L60(%rip), %rdi
	movq	%rdi, 456(%rax)
	leaq	.L61(%rip), %rsi
	movq	%rsi, 464(%rax)
	leaq	.L62(%rip), %rdi
	movq	%rdi, 472(%rax)
	leaq	.L63(%rip), %rsi
	movq	%rsi, 480(%rax)
	leaq	.L64(%rip), %rdi
	movq	%rdi, 488(%rax)
	leaq	.L65(%rip), %rsi
	movq	%rsi, 496(%rax)
	leaq	.L66(%rip), %rdi
	movq	%rdi, 504(%rax)
	leaq	.L67(%rip), %rsi
	movq	%rsi, 512(%rax)
	leaq	.L68(%rip), %rdi
	movq	%rdi, 520(%rax)
	leaq	.L69(%rip), %rsi
	movq	%rsi, 528(%rax)
	leaq	.L70(%rip), %rdi
	movq	%rdi, 536(%rax)
	leaq	.L71(%rip), %rsi
	movq	%rsi, 544(%rax)
	leaq	.L72(%rip), %rdi
	movq	%rdi, 552(%rax)
	leaq	.L73(%rip), %rsi
	movq	%rsi, 560(%rax)
	leaq	.L74(%rip), %rdi
	movq	%rdi, 568(%rax)
	leaq	.L75(%rip), %rsi
	movq	%rsi, 576(%rax)
	leaq	.L76(%rip), %rdi
	movq	%rdi, 584(%rax)
	leaq	.L77(%rip), %rsi
	movq	%rsi, 592(%rax)
	leaq	.L78(%rip), %rdi
	movq	%rdi, 600(%rax)
	leaq	.L79(%rip), %rsi
	movq	%rsi, 608(%rax)
	leaq	.L80(%rip), %rdi
	movq	%rdi, 616(%rax)
	leaq	.L81(%rip), %rsi
	movq	%rsi, 624(%rax)
	leaq	.L82(%rip), %rdi
	movq	%rdi, 632(%rax)
	leaq	.L83(%rip), %rsi
	movq	%rsi, 640(%rax)
	leaq	.L84(%rip), %rdi
	movq	%rdi, 648(%rax)
	leaq	.L85(%rip), %rsi
	movq	%rsi, 656(%rax)
	leaq	.L86(%rip), %rdi
	movq	%rdi, 664(%rax)
	leaq	.L87(%rip), %rsi
	movq	%rsi, 672(%rax)
	leaq	.L88(%rip), %rdi
	movq	%rdi, 680(%rax)
	leaq	.L89(%rip), %rsi
	movq	%rsi, 688(%rax)
	leaq	.L90(%rip), %rdi
	movq	%rdi, 696(%rax)
	leaq	.L91(%rip), %rsi
	movq	%rsi, 704(%rax)
	leaq	.L92(%rip), %rdi
	movq	%rdi, 712(%rax)
	leaq	.L93(%rip), %rsi
	movq	%rsi, 720(%rax)
	leaq	.L94(%rip), %rdi
	movq	%rdi, 728(%rax)
	leaq	.L95(%rip), %rsi
	movq	%rsi, 736(%rax)
	leaq	.L96(%rip), %rdi
	movq	%rdi, 744(%rax)
	leaq	.L97(%rip), %rsi
	movq	%rsi, 752(%rax)
	leaq	.L98(%rip), %rdi
	movq	%rdi, 760(%rax)
	leaq	.L99(%rip), %rsi
	movq	%rsi, 768(%rax)
	leaq	.L100(%rip), %rdi
	movq	%rdi, 776(%rax)
	leaq	.L101(%rip), %rsi
	movq	%rsi, 784(%rax)
	leaq	.L102(%rip), %rdi
	movq	%rdi, 792(%rax)
	leaq	.L103(%rip), %rsi
	movq	%rsi, 800(%rax)
	leaq	.L104(%rip), %rdi
	movq	%rdi, 808(%rax)
	leaq	.L105(%rip), %rsi
	movq	%rsi, 816(%rax)
	leaq	.L106(%rip), %rdi
	movq	%rdi, 824(%rax)
	leaq	.L107(%rip), %rsi
	movq	%rsi, 832(%rax)
	leaq	.L108(%rip), %rdi
	movq	%rdi, 840(%rax)
	leaq	.L109(%rip), %rsi
	movq	%rsi, 848(%rax)
	leaq	.L110(%rip), %rdi
	movq	%rdi, 856(%rax)
	leaq	.L111(%rip), %rsi
	movq	%rsi, 864(%rax)
	leaq	.L112(%rip), %rdi
	movq	%rdi, 872(%rax)
	leaq	.L113(%rip), %rsi
	movq	%rsi, 880(%rax)
	leaq	.L114(%rip), %rdi
	movq	%rdi, 888(%rax)
	leaq	.L115(%rip), %rsi
	movq	%rsi, 896(%rax)
	leaq	.L116(%rip), %rdi
	movq	%rdi, 904(%rax)
	leaq	.L117(%rip), %rsi
	movq	%rsi, 912(%rax)
	leaq	.L118(%rip), %rdi
	movq	%rdi, 920(%rax)
	leaq	.L119(%rip), %rsi
	movq	%rsi, 928(%rax)
	leaq	.L120(%rip), %rdi
	movq	%rdi, 936(%rax)
	leaq	.L121(%rip), %rsi
	movq	%rsi, 944(%rax)
	leaq	.L122(%rip), %rdi
	movq	%rdi, 952(%rax)
	leaq	.L123(%rip), %rsi
	movq	%rsi, 960(%rax)
	leaq	.L124(%rip), %rdi
	movq	%rdi, 968(%rax)
	leaq	.L125(%rip), %rsi
	movq	%rsi, 976(%rax)
	leaq	.L126(%rip), %rdi
	movq	%rdi, 984(%rax)
	leaq	.L127(%rip), %rsi
	movq	%rsi, 992(%rax)
	leaq	.L128(%rip), %rdi
	movq	%rdi, 1000(%rax)
	leaq	.L129(%rip), %rsi
	movq	%rsi, 1008(%rax)
	leaq	.L130(%rip), %rdi
	movq	%rdi, 1016(%rax)
	leaq	.L131(%rip), %rsi
	movq	%rsi, 1024(%rax)
	leaq	.L132(%rip), %rdi
	movq	%rdi, 1032(%rax)
	leaq	.L133(%rip), %rsi
	movq	%rsi, 1040(%rax)
	leaq	.L134(%rip), %rdi
	movq	%rdi, 1048(%rax)
	leaq	.L135(%rip), %rsi
	movq	%rsi, 1056(%rax)
	leaq	.L136(%rip), %rdi
	movq	%rdi, 1064(%rax)
	leaq	.L137(%rip), %rsi
	movq	%rsi, 1072(%rax)
	leaq	.L138(%rip), %rdi
	movq	%rdi, 1080(%rax)
	leaq	.L139(%rip), %rsi
	movq	%rsi, 1088(%rax)
	leaq	.L140(%rip), %rdi
	movq	%rdi, 1096(%rax)
	leaq	.L141(%rip), %rsi
	movq	%rsi, 1104(%rax)
	leaq	.L142(%rip), %rdi
	movq	%rdi, 1112(%rax)
	leaq	.L143(%rip), %rsi
	movq	%rsi, 1120(%rax)
	leaq	.L144(%rip), %rdi
	movq	%rdi, 1128(%rax)
	leaq	.L145(%rip), %rsi
	movq	%rsi, 1136(%rax)
	leaq	.L146(%rip), %rdi
	movq	%rdi, 1144(%rax)
	leaq	.L147(%rip), %rsi
	movq	%rsi, 1152(%rax)
	leaq	.L148(%rip), %rdi
	movq	%rdi, 1160(%rax)
	leaq	.L149(%rip), %rsi
	movq	%rsi, 1168(%rax)
	leaq	.L150(%rip), %rdi
	movq	%rdi, 1176(%rax)
	leaq	.L151(%rip), %rsi
	movq	%rsi, 1184(%rax)
	leaq	.L152(%rip), %rdi
	movq	%rdi, 1192(%rax)
	leaq	.L153(%rip), %rsi
	movq	%rsi, 1200(%rax)
	leaq	.L154(%rip), %rdi
	movq	%rdi, 1208(%rax)
	leaq	.L155(%rip), %rsi
	movq	%rsi, 1216(%rax)
	leaq	.L156(%rip), %rdi
	movq	%rdi, 1224(%rax)
	leaq	.L157(%rip), %rsi
	movq	%rsi, 1232(%rax)
	leaq	.L158(%rip), %rdi
	movq	%rdi, 1240(%rax)
	leaq	.L159(%rip), %rsi
	movq	%rsi, 1248(%rax)
	leaq	.L160(%rip), %rdi
	movq	%rdi, 1256(%rax)
	leaq	.L161(%rip), %rsi
	movq	%rsi, 1264(%rax)
	leaq	.L162(%rip), %rdi
	movq	%rdi, 1272(%rax)
	leaq	.L163(%rip), %rsi
	movq	%rsi, 1280(%rax)
	leaq	.L164(%rip), %rdi
	movq	%rdi, 1288(%rax)
	leaq	.L165(%rip), %rsi
	movq	%rsi, 1296(%rax)
	leaq	.L166(%rip), %rdi
	movq	%rdi, 1304(%rax)
	leaq	.L167(%rip), %rsi
	movq	%rsi, 1312(%rax)
	leaq	.L168(%rip), %rdi
	movq	%rdi, 1320(%rax)
	leaq	.L169(%rip), %rsi
	movq	%rsi, 1328(%rax)
	leaq	.L170(%rip), %rdi
	movq	%rdi, 1336(%rax)
	leaq	.L171(%rip), %rsi
	movq	%rsi, 1344(%rax)
	leaq	.L172(%rip), %rdi
	movq	%rdi, 1352(%rax)
	leaq	.L173(%rip), %rsi
	movq	%rsi, 1360(%rax)
	leaq	.L174(%rip), %rdi
	movq	%rdi, 1368(%rax)
	leaq	.L175(%rip), %rsi
	movq	%rsi, 1376(%rax)
	leaq	.L176(%rip), %rdi
	movq	%rdi, 1384(%rax)
	leaq	.L177(%rip), %rsi
	movq	%rsi, 1392(%rax)
	leaq	.L178(%rip), %rdi
	movq	%rdi, 1400(%rax)
	leaq	.L179(%rip), %rsi
	movq	%rsi, 1408(%rax)
	leaq	.L180(%rip), %rdi
	movq	%rdi, 1416(%rax)
	leaq	.L181(%rip), %rsi
	movq	%rsi, 1424(%rax)
	leaq	.L182(%rip), %rdi
	movq	%rdi, 1432(%rax)
	leaq	.L183(%rip), %rsi
	movq	%rsi, 1440(%rax)
	leaq	.L184(%rip), %rdi
	movq	%rdi, 1448(%rax)
	leaq	.L185(%rip), %rsi
	movq	%rsi, 1456(%rax)
	leaq	.L186(%rip), %rdi
	movq	%rdi, 1464(%rax)
	leaq	.L187(%rip), %rsi
	movq	%rsi, 1472(%rax)
	leaq	.L188(%rip), %rdi
	movq	%rdi, 1480(%rax)
	leaq	.L189(%rip), %rsi
	movq	%rsi, 1488(%rax)
	leaq	.L190(%rip), %rdi
	movq	%rdi, 1496(%rax)
	leaq	.L191(%rip), %rsi
	movq	%rsi, 1504(%rax)
	leaq	.L192(%rip), %rdi
	movq	%rdi, 1512(%rax)
	leaq	.L193(%rip), %rsi
	movq	%rsi, 1520(%rax)
	leaq	.L194(%rip), %rdi
	movq	%rdi, 1528(%rax)
	leaq	.L195(%rip), %rsi
	movq	%rsi, 1536(%rax)
	leaq	.L196(%rip), %rdi
	movq	%rdi, 1544(%rax)
	leaq	.L197(%rip), %rsi
	movq	%rsi, 1552(%rax)
	leaq	.L198(%rip), %rdi
	movq	%rdi, 1560(%rax)
	leaq	.L199(%rip), %rsi
	movq	%rsi, 1568(%rax)
	leaq	.L200(%rip), %rdi
	movq	%rdi, 1576(%rax)
	leaq	.L201(%rip), %rsi
	movq	%rsi, 1584(%rax)
	leaq	.L202(%rip), %rdi
	movq	%rdi, 1592(%rax)
	leaq	.L203(%rip), %rsi
	movq	%rsi, 1600(%rax)
	leaq	.L204(%rip), %rdi
	movq	%rdi, 1608(%rax)
	leaq	.L205(%rip), %rsi
	movq	%rsi, 1616(%rax)
	leaq	.L206(%rip), %rdi
	movq	%rdi, 1624(%rax)
	leaq	.L207(%rip), %rsi
	movq	%rsi, 1632(%rax)
	leaq	.L208(%rip), %rdi
	movq	%rdi, 1640(%rax)
	leaq	.L209(%rip), %rsi
	movq	%rsi, 1648(%rax)
	leaq	.L210(%rip), %rdi
	movq	%rdi, 1656(%rax)
	leaq	.L211(%rip), %rsi
	movq	%rsi, 1664(%rax)
	leaq	.L212(%rip), %rdi
	movq	%rdi, 1672(%rax)
	leaq	.L213(%rip), %rsi
	movq	%rsi, 1680(%rax)
	leaq	.L214(%rip), %rdi
	movq	%rdi, 1688(%rax)
	leaq	.L215(%rip), %rsi
	movq	%rsi, 1696(%rax)
	leaq	.L216(%rip), %rdi
	movq	%rdi, 1704(%rax)
	leaq	.L217(%rip), %rsi
	movq	%rsi, 1712(%rax)
	leaq	.L218(%rip), %rdi
	movq	%rdi, 1720(%rax)
	leaq	.L219(%rip), %rsi
	movq	%rsi, 1728(%rax)
	leaq	.L220(%rip), %rdi
	movq	%rdi, 1736(%rax)
	leaq	.L221(%rip), %rsi
	movq	%rsi, 1744(%rax)
	leaq	.L222(%rip), %rdi
	movq	%rdi, 1752(%rax)
	leaq	.L223(%rip), %rsi
	movq	%rsi, 1760(%rax)
	leaq	.L224(%rip), %rdi
	movq	%rdi, 1768(%rax)
	leaq	.L225(%rip), %rsi
	movq	%rsi, 1776(%rax)
	leaq	.L226(%rip), %rdi
	movq	%rdi, 1784(%rax)
	leaq	.L227(%rip), %rsi
	movq	%rsi, 1792(%rax)
	leaq	.L228(%rip), %rdi
	movq	%rdi, 1800(%rax)
	leaq	.L229(%rip), %rsi
	movq	%rsi, 1808(%rax)
	leaq	.L230(%rip), %rdi
	movq	%rdi, 1816(%rax)
	leaq	.L231(%rip), %rsi
	movq	%rsi, 1824(%rax)
	leaq	.L232(%rip), %rdi
	movq	%rdi, 1832(%rax)
	leaq	.L233(%rip), %rsi
	movq	%rsi, 1840(%rax)
	leaq	.L234(%rip), %rdi
	movq	%rdi, 1848(%rax)
	leaq	.L235(%rip), %rsi
	movq	%rsi, 1856(%rax)
	leaq	.L236(%rip), %rdi
	movq	%rdi, 1864(%rax)
	leaq	.L237(%rip), %rsi
	movq	%rsi, 1872(%rax)
	leaq	.L238(%rip), %rdi
	movq	%rdi, 1880(%rax)
	movq	%rdx, 1888(%rax)
	leaq	.L239(%rip), %rsi
	movq	%rsi, 1896(%rax)
	movq	%rdx, 1904(%rax)
	leaq	.L240(%rip), %rdi
	movq	%rdi, 1912(%rax)
	leaq	.L241(%rip), %rsi
	movq	%rsi, 1920(%rax)
	leaq	.L242(%rip), %rdi
	movq	%rdi, 1928(%rax)
	leaq	.L243(%rip), %rsi
	movq	%rsi, 1936(%rax)
	leaq	.L244(%rip), %rdi
	movq	%rdi, 1944(%rax)
	leaq	.L245(%rip), %rsi
	movq	%rsi, 1952(%rax)
	leaq	.L246(%rip), %rdi
	movq	%rdi, 1960(%rax)
	leaq	.L247(%rip), %rsi
	movq	%rsi, 1968(%rax)
	leaq	.L248(%rip), %rdi
	movq	%rdi, 1976(%rax)
	leaq	.L249(%rip), %rsi
	movq	%rsi, 1984(%rax)
	leaq	.L250(%rip), %rdi
	movq	%rdi, 1992(%rax)
	leaq	.L251(%rip), %rsi
	movq	%rsi, 2000(%rax)
	leaq	.L252(%rip), %rdi
	movq	%rdi, 2008(%rax)
	leaq	.L253(%rip), %rsi
	movq	%rsi, 2016(%rax)
	leaq	.L254(%rip), %rdi
	movq	%rdi, 2024(%rax)
	leaq	.L255(%rip), %rsi
	movq	%rsi, 2032(%rax)
	leaq	.L256(%rip), %rdi
	movq	%rdi, 2040(%rax)
	leaq	.L257(%rip), %rsi
	movq	%rsi, 2048(%rax)
	leaq	.L258(%rip), %rdi
	movq	%rdi, 2056(%rax)
	leaq	.L259(%rip), %rsi
	movq	%rsi, 2064(%rax)
	leaq	.L260(%rip), %rdi
	movq	%rdi, 2072(%rax)
	leaq	.L261(%rip), %rsi
	movq	%rsi, 2080(%rax)
	leaq	.L262(%rip), %rdi
	movq	%rdi, 2088(%rax)
	leaq	.L263(%rip), %rsi
	movq	%rsi, 2096(%rax)
	leaq	.L264(%rip), %rdi
	movq	%rdi, 2104(%rax)
	leaq	.L265(%rip), %rsi
	movq	%rsi, 2112(%rax)
	leaq	.L266(%rip), %rdi
	movq	%rdi, 2120(%rax)
	leaq	.L267(%rip), %rsi
	movq	%rsi, 2128(%rax)
	leaq	.L268(%rip), %rdi
	movq	%rdi, 2136(%rax)
	leaq	.L269(%rip), %rsi
	movq	%rsi, 2144(%rax)
	leaq	.L270(%rip), %rdi
	movq	%rdi, 2152(%rax)
	leaq	.L271(%rip), %rsi
	movq	%rsi, 2160(%rax)
	leaq	.L272(%rip), %rdi
	movq	%rdi, 2168(%rax)
	leaq	.L273(%rip), %rsi
	movq	%rsi, 2176(%rax)
	leaq	.L274(%rip), %rdi
	movq	%rdi, 2184(%rax)
	leaq	.L275(%rip), %rsi
	movq	%rsi, 2192(%rax)
	leaq	.L276(%rip), %rdi
	movq	%rdi, 2200(%rax)
	leaq	.L277(%rip), %rsi
	movq	%rsi, 2208(%rax)
	leaq	.L278(%rip), %rdi
	movq	%rdi, 2216(%rax)
	leaq	.L279(%rip), %rsi
	movq	%rsi, 2224(%rax)
	leaq	.L280(%rip), %rdi
	movq	%rdi, 2232(%rax)
	leaq	.L281(%rip), %rsi
	movq	%rsi, 2240(%rax)
	leaq	.L282(%rip), %rdi
	movq	%rdi, 2248(%rax)
	leaq	.L283(%rip), %rsi
	movq	%rsi, 2256(%rax)
	leaq	.L284(%rip), %rdi
	movq	%rdi, 2264(%rax)
	leaq	.L285(%rip), %rsi
	movq	%rsi, 2272(%rax)
	leaq	.L286(%rip), %rdi
	movq	%rdi, 2280(%rax)
	leaq	.L287(%rip), %rsi
	movq	%rsi, 2288(%rax)
	leaq	.L288(%rip), %rdi
	movq	%rdi, 2296(%rax)
	leaq	.L289(%rip), %rsi
	movq	%rsi, 2304(%rax)
	leaq	.L290(%rip), %rdi
	movq	%rdi, 2312(%rax)
	leaq	.L291(%rip), %rsi
	movq	%rsi, 2320(%rax)
	leaq	.L292(%rip), %rdi
	movq	%rdi, 2328(%rax)
	leaq	.L293(%rip), %rsi
	movq	%rsi, 2336(%rax)
	leaq	.L294(%rip), %rdi
	movq	%rdi, 2344(%rax)
	leaq	.L295(%rip), %rsi
	movq	%rsi, 2352(%rax)
	leaq	.L296(%rip), %rdi
	movq	%rdi, 2360(%rax)
	leaq	.L297(%rip), %rsi
	movq	%rsi, 2368(%rax)
	leaq	.L298(%rip), %rdi
	movq	%rdi, 2376(%rax)
	leaq	.L299(%rip), %rsi
	movq	%rsi, 2384(%rax)
	leaq	.L300(%rip), %rdi
	movq	%rdi, 2392(%rax)
	leaq	.L301(%rip), %rsi
	movq	%rsi, 2400(%rax)
	leaq	.L302(%rip), %rdi
	movq	%rdi, 2408(%rax)
	leaq	.L303(%rip), %rsi
	movq	%rsi, 2416(%rax)
	leaq	.L304(%rip), %rdi
	movq	%rdi, 2424(%rax)
	leaq	.L305(%rip), %rsi
	movq	%rsi, 2432(%rax)
	leaq	.L306(%rip), %rdi
	movq	%rdi, 2440(%rax)
	leaq	.L307(%rip), %rsi
	movq	%rsi, 2448(%rax)
	leaq	.L308(%rip), %rdi
	movq	%rdi, 2456(%rax)
	leaq	.L309(%rip), %rsi
	movq	%rsi, 2464(%rax)
	leaq	.L310(%rip), %rdi
	movq	%rdi, 2472(%rax)
	leaq	.L311(%rip), %rsi
	movq	%rsi, 2480(%rax)
	leaq	.L312(%rip), %rdi
	movq	%rdi, 2488(%rax)
	leaq	.L313(%rip), %rsi
	movq	%rsi, 2496(%rax)
	leaq	.L314(%rip), %rdi
	movq	%rdi, 2504(%rax)
	leaq	.L315(%rip), %rsi
	movq	%rsi, 2512(%rax)
	leaq	.L316(%rip), %rdi
	movq	%rdi, 2520(%rax)
	leaq	.L317(%rip), %rsi
	movq	%rsi, 2528(%rax)
	leaq	.L318(%rip), %rdi
	movq	%rdi, 2536(%rax)
	leaq	.L319(%rip), %rsi
	movq	%rsi, 2544(%rax)
	leaq	.L320(%rip), %rdi
	movq	%rdi, 2552(%rax)
	leaq	.L321(%rip), %rsi
	movq	%rsi, 2560(%rax)
	leaq	.L322(%rip), %rdi
	movq	%rdi, 2568(%rax)
	leaq	.L323(%rip), %rsi
	movq	%rsi, 2576(%rax)
	leaq	.L324(%rip), %rdi
	movq	%rdi, 2584(%rax)
	leaq	.L325(%rip), %rsi
	movq	%rsi, 2592(%rax)
	leaq	.L326(%rip), %rdi
	movq	%rdi, 2600(%rax)
	leaq	.L327(%rip), %rsi
	movq	%rsi, 2608(%rax)
	leaq	.L328(%rip), %rdi
	movq	%rdi, 2616(%rax)
	leaq	.L329(%rip), %rsi
	movq	%rsi, 2624(%rax)
	leaq	.L330(%rip), %rdi
	movq	%rdi, 2632(%rax)
	leaq	.L331(%rip), %rsi
	movq	%rsi, 2640(%rax)
	leaq	.L332(%rip), %rdi
	movq	%rdi, 2648(%rax)
	leaq	.L333(%rip), %rsi
	movq	%rsi, 2656(%rax)
	leaq	.L334(%rip), %rdi
	movq	%rdi, 2664(%rax)
	leaq	.L335(%rip), %rsi
	movq	%rsi, 2672(%rax)
	leaq	.L336(%rip), %rdi
	movq	%rdi, 2680(%rax)
	leaq	.L337(%rip), %rsi
	movq	%rsi, 2688(%rax)
	leaq	.L338(%rip), %rdi
	movq	%rdi, 2696(%rax)
	leaq	.L339(%rip), %rsi
	movq	%rsi, 2704(%rax)
	leaq	.L340(%rip), %rdi
	movq	%rdi, 2712(%rax)
	leaq	.L341(%rip), %rsi
	movq	%rsi, 2720(%rax)
	leaq	.L342(%rip), %rdi
	movq	%rdi, 2728(%rax)
	leaq	.L343(%rip), %rsi
	movq	%rsi, 2736(%rax)
	leaq	.L344(%rip), %rdi
	movq	%rdi, 2744(%rax)
	leaq	.L345(%rip), %rsi
	movq	%rsi, 2752(%rax)
	leaq	.L346(%rip), %rdi
	movq	%rdi, 2760(%rax)
	leaq	.L347(%rip), %rsi
	movq	%rsi, 2768(%rax)
	leaq	.L348(%rip), %rdi
	movq	%rdi, 2776(%rax)
	leaq	.L349(%rip), %rsi
	movq	%rsi, 2784(%rax)
	leaq	.L350(%rip), %rdi
	movq	%rdi, 2792(%rax)
	leaq	.L351(%rip), %rsi
	movq	%rsi, 2800(%rax)
	leaq	.L352(%rip), %rdi
	movq	%rdi, 2808(%rax)
	leaq	.L353(%rip), %rsi
	movq	%rsi, 2816(%rax)
	leaq	.L354(%rip), %rdi
	movq	%rdi, 2824(%rax)
	leaq	.L355(%rip), %rsi
	movq	%rsi, 2832(%rax)
	leaq	.L356(%rip), %rdi
	movq	%rdi, 2840(%rax)
	leaq	.L357(%rip), %rsi
	movq	%rsi, 2848(%rax)
	leaq	.L358(%rip), %rdi
	movq	%rdi, 2856(%rax)
	leaq	.L359(%rip), %rsi
	movq	%rsi, 2864(%rax)
	leaq	.L360(%rip), %rdi
	movq	%rdi, 2872(%rax)
	leaq	.L361(%rip), %rsi
	movq	%rsi, 2880(%rax)
	leaq	.L362(%rip), %rdi
	movq	%rdi, 2888(%rax)
	leaq	.L363(%rip), %rsi
	movq	%rsi, 2896(%rax)
	leaq	.L364(%rip), %rdi
	movq	%rdi, 2904(%rax)
	leaq	.L365(%rip), %rsi
	movq	%rsi, 2912(%rax)
	leaq	.L366(%rip), %rdi
	movq	%rdi, 2920(%rax)
	leaq	.L367(%rip), %rsi
	movq	%rsi, 2928(%rax)
	leaq	.L368(%rip), %rdi
	movq	%rdi, 2936(%rax)
	leaq	.L369(%rip), %rsi
	movq	%rsi, 2944(%rax)
	leaq	.L370(%rip), %rdi
	movq	%rdi, 2952(%rax)
	leaq	.L371(%rip), %rsi
	movq	%rsi, 2960(%rax)
	leaq	.L372(%rip), %rdi
	movq	%rdi, 2968(%rax)
	leaq	.L373(%rip), %rsi
	movq	%rsi, 2976(%rax)
	leaq	.L374(%rip), %rdi
	movq	%rdi, 2984(%rax)
	leaq	.L375(%rip), %rsi
	movq	%rsi, 2992(%rax)
	leaq	.L376(%rip), %rdi
	movq	%rdi, 3000(%rax)
	leaq	.L377(%rip), %rsi
	movq	%rsi, 3008(%rax)
	leaq	.L378(%rip), %rdi
	movq	%rdi, 3016(%rax)
	leaq	.L379(%rip), %rsi
	movq	%rsi, 3024(%rax)
	leaq	.L380(%rip), %rdi
	movq	%rdi, 3032(%rax)
	leaq	.L381(%rip), %rsi
	movq	%rsi, 3040(%rax)
	leaq	.L382(%rip), %rdi
	movq	%rdi, 3048(%rax)
	leaq	.L383(%rip), %rsi
	movq	%rsi, 3056(%rax)
	leaq	.L384(%rip), %rdi
	movq	%rdi, 3064(%rax)
	leaq	.L385(%rip), %rsi
	movq	%rsi, 3072(%rax)
	leaq	.L386(%rip), %rdi
	movq	%rdi, 3080(%rax)
	leaq	.L387(%rip), %rsi
	movq	%rsi, 3088(%rax)
	leaq	.L388(%rip), %rdi
	movq	%rdi, 3096(%rax)
	leaq	.L389(%rip), %rsi
	movq	%rsi, 3104(%rax)
	leaq	.L390(%rip), %rdi
	movq	%rdi, 3112(%rax)
	leaq	.L391(%rip), %rsi
	movq	%rsi, 3120(%rax)
	leaq	.L392(%rip), %rdi
	movq	%rdi, 3128(%rax)
	leaq	.L393(%rip), %rsi
	movq	%rsi, 3136(%rax)
	leaq	.L394(%rip), %rdi
	movq	%rdi, 3144(%rax)
	leaq	.L395(%rip), %rsi
	movq	%rsi, 3152(%rax)
	leaq	.L396(%rip), %rdi
	movq	%rdi, 3160(%rax)
	leaq	.L397(%rip), %rsi
	movq	%rsi, 3168(%rax)
	leaq	.L398(%rip), %rdi
	movq	%rdi, 3176(%rax)
	leaq	.L399(%rip), %rsi
	movq	%rsi, 3184(%rax)
	leaq	.L400(%rip), %rdi
	movq	%rdi, 3192(%rax)
	leaq	.L401(%rip), %rsi
	movq	%rsi, 3200(%rax)
	leaq	.L402(%rip), %rdi
	movq	%rdi, 3208(%rax)
	leaq	.L403(%rip), %rsi
	movq	%rsi, 3216(%rax)
	leaq	.L404(%rip), %rdi
	movq	%rdi, 3224(%rax)
	leaq	.L405(%rip), %rsi
	movq	%rsi, 3232(%rax)
	leaq	.L406(%rip), %rdi
	movq	%rdi, 3240(%rax)
	leaq	.L407(%rip), %rsi
	movq	%rsi, 3248(%rax)
	leaq	.L408(%rip), %rdi
	movq	%rdi, 3256(%rax)
	movq	ec_@GOTPCREL(%rip), %rax
	movq	$0, 720(%rax)
	xorl	%eax, %eax
	ret
	.p2align 4,,10
	.p2align 3
.L2:
	pushq	%r15
	.cfi_def_cfa_offset 16
	.cfi_offset 15, -16
	pushq	%r14
	.cfi_def_cfa_offset 24
	.cfi_offset 14, -24
	pushq	%r13
	.cfi_def_cfa_offset 32
	.cfi_offset 13, -32
	pushq	%r12
	.cfi_def_cfa_offset 40
	.cfi_offset 12, -40
	pushq	%rbp
	.cfi_def_cfa_offset 48
	.cfi_offset 6, -48
	pushq	%rbx
	.cfi_def_cfa_offset 56
	.cfi_offset 3, -56
	subq	$376, %rsp
	.cfi_def_cfa_offset 432
	movq	ec_@GOTPCREL(%rip), %rax
	movq	72(%rax), %r13
	movq	32(%rax), %rsi
	movq	%rsi, 280(%rsp)
	movq	40(%rax), %rdi
	movq	%rdi, 248(%rsp)
	movq	(%rax), %rsi
	movq	%rsi, 216(%rsp)
	movq	24(%rax), %r14
	movq	16(%rax), %rdi
	movq	%rdi, 232(%rsp)
	andl	$-1073741825, 64(%rax)
	movq	464(%rax), %rsi
	cmpq	%rsi, 48(%rax)
	jb	.L410
	orl	$1073741824, 64(%rax)
	call	control_ov@PLT
	testl	%eax, %eax
	jne	.L2200
	movq	ec_@GOTPCREL(%rip), %rax
	andl	$-1073741825, 64(%rax)
.L410:
	movq	%r13, %rax
	leaq	8(%r13), %r13
	movq	(%rax), %rax
	movl	$1, 308(%rsp)
	jmp	.L412
	.p2align 4,,10
	.p2align 3
.L428:
	movq	232(%rsp), %rdi
	movq	%rdi, 224(%rsp)
	movq	%r14, 240(%rsp)
	movq	280(%rsp), %rdi
	movq	%rdi, 272(%rsp)
	movq	248(%rsp), %rsi
	movq	%rsi, 256(%rsp)
.L712:
	jmp	*%rax
.L413:
	movq	288(%rsp), %rax
	movq	(%rax), %rax
	testq	%rax, %rax
	jne	.L414
	movq	ec_@GOTPCREL(%rip), %rax
	movq	$11, 760(%rax)
	movq	288(%rsp), %rsi
	movq	%rsi, 752(%rax)
	movq	224(%rsp), %rax
	movq	%rax, 248(%rsp)
	jmp	.L415
.L414:
	movq	%rax, 216(%rsp)
	addq	$1, %rax
	movq	%rax, 232(%rsp)
	salq	$4, 232(%rsp)
	movq	224(%rsp), %rax
	addq	232(%rsp), %rax
	movq	%rax, 248(%rsp)
	movq	224(%rsp), %rax
	movq	288(%rsp), %rsi
	movq	%rsi, (%rax)
	addq	$16, %rax
	movq	%rax, 264(%rsp)
	movq	224(%rsp), %rax
	movq	$11, 8(%rax)
	cmpq	$0, 216(%rsp)
	je	.L416
	movq	264(%rsp), %rbx
	xorl	%r15d, %r15d
	movq	ec_@GOTPCREL(%rip), %rax
	leaq	736(%rax), %r12
.L423:
	leaq	16(%r12), %rbp
	cmpq	$0, -8(%rbp)
	jns	.L2087
	cmpq	%r12, -16(%rbp)
	je	.L418
.L419:
	movq	(%r12), %r12
	cmpq	$0, 8(%r12)
	jns	.L2087
	cmpq	%r12, (%r12)
	jne	.L419
	jmp	.L418
.L2088:
	cmpq	%r12, 272(%rsp)
	ja	.L420
	movq	ec_@GOTPCREL(%rip), %rcx
	movq	8(%rcx), %rdx
	leaq	-8(%rdx), %rax
	movq	%rax, 8(%rcx)
	movq	%r12, -8(%rdx)
	movq	456(%rcx), %rax
	cmpq	%rax, 8(%rcx)
	ja	.L420
	movq	%rcx, %r14
	movq	296(%rsp), %rax
	movq	%rax, (%rcx)
	movq	240(%rsp), %rax
	movq	%rax, 24(%rcx)
	movq	248(%rsp), %rax
	movq	%rax, 16(%rcx)
	movq	%r13, 72(%rcx)
	orl	$1073741824, 64(%rcx)
	call	trail_ov@PLT
	andl	$-1073741825, 64(%r14)
.L420:
	movq	%rbx, (%r12)
	movq	%rbx, (%rbx)
	movabsq	$-9223372036854775553, %rax
	movq	%rax, 8(%rbx)
	addq	$16, %rbx
	jmp	.L421
	.p2align 4,,10
	.p2align 3
.L2087:
	movq	(%r12), %rax
	movq	8(%r12), %rdx
	movq	%rax, (%rbx)
	movq	%rdx, 8(%rbx)
	addq	$16, %rbx
.L421:
	addq	$1, %r15
	cmpq	%r15, 216(%rsp)
	je	.L422
	movq	%rbp, %r12
	jmp	.L423
.L422:
	movq	264(%rsp), %rax
	movq	232(%rsp), %rsi
	leaq	-16(%rax,%rsi), %rax
	movq	%rax, 264(%rsp)
.L416:
	movq	ec_@GOTPCREL(%rip), %rdx
	movq	$1, 760(%rdx)
	movq	248(%rsp), %rax
	subq	232(%rsp), %rax
	movq	%rax, 752(%rdx)
.L415:
	movq	248(%rsp), %rax
	addq	$16, %rax
	movq	%rax, 232(%rsp)
	movq	ec_@GOTPCREL(%rip), %rax
	movq	232(%rsp), %rsi
	cmpq	448(%rax), %rsi
	jb	.L424
	movq	%rax, %rbx
	movq	296(%rsp), %rax
	movq	%rax, (%rbx)
	movq	240(%rsp), %rax
	movq	%rax, 24(%rbx)
	movq	%rsi, 16(%rbx)
	movq	%r13, 72(%rbx)
	orl	$1073741824, 64(%rbx)
	call	global_ov@PLT
	andl	$-1073741825, 64(%rbx)
.L424:
	movabsq	$-9223372036854775553, %rdx
	movq	248(%rsp), %rax
	movq	%rdx, 8(%rax)
	movq	%rax, (%rax)
	movq	ec_@GOTPCREL(%rip), %rax
	movq	%rdx, 776(%rax)
	movq	248(%rsp), %rdi
	movq	%rdi, 768(%rax)
	movq	$11, 792(%rax)
	movq	14312(%rax), %rdx
	movq	%rdx, 784(%rax)
.L425:
	movq	ec_@GOTPCREL(%rip), %rax
	movq	$10, 744(%rax)
	movl	280(%rsp), %edx
	negl	%edx
	movslq	%edx, %rdx
	movq	%rdx, 736(%rax)
	movq	296(%rsp), %rsi
	leaq	-8(%rsi), %rdi
	movq	%rdi, 216(%rsp)
	movq	%r13, -8(%rsi)
	movq	216(%rsp), %rsi
	cmpq	472(%rax), %rsi
	ja	.L426
	movq	%rsi, (%rax)
	movq	240(%rsp), %rsi
	movq	%rsi, 24(%rax)
	movq	232(%rsp), %rsi
	movq	%rsi, 16(%rax)
	movq	%r13, 72(%rax)
	orl	$1073741824, 64(%rax)
	call	local_ov@PLT
	testl	%eax, %eax
	je	.L427
	movq	256(%rsp), %rax
	movq	%rax, 248(%rsp)
	movq	272(%rsp), %rax
	movq	%rax, 280(%rsp)
	movq	240(%rsp), %r14
	jmp	.L411
	.p2align 4,,10
	.p2align 3
.L427:
	movq	ec_@GOTPCREL(%rip), %rax
	andl	$-1073741825, 64(%rax)
.L426:
	movq	prolog_error_code_@GOTPCREL(%rip), %rax
	movq	(%rax), %rax
	leaq	8(%rax), %r13
	movq	(%rax), %rax
	movq	256(%rsp), %rdi
	movq	%rdi, 248(%rsp)
	movq	272(%rsp), %rsi
	movq	%rsi, 280(%rsp)
	movq	240(%rsp), %r14
	jmp	.L428
.L429:
	movq	216(%rsp), %r15
	jmp	.L430
	.p2align 4,,10
	.p2align 3
.L2201:
	movq	%rax, %rbp
	jmp	.L430
.L2210:
	movq	%rbx, %r12
.L430:
	movq	8(%rbp), %rbx
	testq	%rbx, %rbx
	js	.L432
.L435:
	cmpq	$0, 8(%r12)
	jns	.L433
	cmpq	(%r12), %r12
	jne	.L2598
	jmp	.L433
	.p2align 4,,10
	.p2align 3
.L432:
	movq	0(%rbp), %rax
	cmpq	%rbp, %rax
	jne	.L2201
	.p2align 4,,4
	jmp	.L435
	.p2align 4,,10
	.p2align 3
.L2598:
	movq	(%r12), %r12
	cmpq	$0, 8(%r12)
	jns	.L433
	cmpq	%r12, (%r12)
	jne	.L2598
.L433:
	cmpq	%r12, %rbp
	je	.L437
	cmpb	$-4, %bl
	jne	.L438
	movq	ec_@GOTPCREL(%rip), %rcx
	movq	8(%rcx), %rdx
	leaq	-8(%rdx), %rax
	movq	%rax, 8(%rcx)
	movq	%rbp, -8(%rdx)
	movq	8(%rcx), %rsi
	leaq	-8(%rsi), %rax
	movq	%rax, 8(%rcx)
	movq	8(%rbp), %rax
	movabsq	$-9223372036854775808, %rdx
	andq	%rax, %rdx
	salq	$2, %rax
	orq	%rax, %rdx
	orq	$1, %rdx
	movq	%rdx, -8(%rsi)
	movq	456(%rcx), %rax
	cmpq	%rax, 8(%rcx)
	ja	.L439
	movq	%rcx, %rbx
	movq	216(%rsp), %rax
	movq	%rax, (%rcx)
	movq	240(%rsp), %rax
	movq	%rax, 24(%rcx)
	movq	224(%rsp), %rax
	movq	%rax, 16(%rcx)
	movq	%r13, 72(%rcx)
	orl	$1073741824, 64(%rcx)
	call	trail_ov@PLT
	andl	$-1073741825, 64(%rbx)
.L439:
	movabsq	$-9223372036854775553, %rax
	movq	%rax, 8(%rbp)
	movq	%r12, 0(%rbp)
	jmp	.L437
	.p2align 4,,10
	.p2align 3
.L438:
	movq	8(%r12), %rax
	cmpb	$-4, %al
	jne	.L440
	movq	ec_@GOTPCREL(%rip), %rcx
	movq	8(%rcx), %rdx
	leaq	-8(%rdx), %rax
	movq	%rax, 8(%rcx)
	movq	%r12, -8(%rdx)
	movq	8(%rcx), %rsi
	leaq	-8(%rsi), %rax
	movq	%rax, 8(%rcx)
	movq	8(%r12), %rax
	movabsq	$-9223372036854775808, %rdx
	andq	%rax, %rdx
	salq	$2, %rax
	orq	%rax, %rdx
	orq	$1, %rdx
	movq	%rdx, -8(%rsi)
	movq	456(%rcx), %rax
	cmpq	%rax, 8(%rcx)
	ja	.L441
	movq	%rcx, %rbx
	movq	216(%rsp), %rax
	movq	%rax, (%rcx)
	movq	240(%rsp), %rax
	movq	%rax, 24(%rcx)
	movq	224(%rsp), %rax
	movq	%rax, 16(%rcx)
	movq	%r13, 72(%rcx)
	orl	$1073741824, 64(%rcx)
	call	trail_ov@PLT
	andl	$-1073741825, 64(%rbx)
.L441:
	movabsq	$-9223372036854775553, %rax
	movq	%rax, 8(%r12)
	movq	%rbp, (%r12)
	jmp	.L437
	.p2align 4,,10
	.p2align 3
.L440:
	testq	%rbx, %rbx
	jns	.L442
	testq	%rax, %rax
	jns	.L443
	movq	(%r12), %rax
	cmpq	%rax, 0(%rbp)
	je	.L437
	movq	%r12, 232(%rsp)
	movq	identical_proc_@GOTPCREL(%rip), %rax
	movq	296(%rsp), %rdi
	cmpq	(%rax), %rdi
	je	.L2202
	movq	not_identical_proc_@GOTPCREL(%rip), %rax
	cmpq	(%rax), %rdi
	jne	.L445
	movq	%r13, %rax
	leaq	8(%r13), %r13
	movq	(%rax), %rax
	movq	256(%rsp), %rdi
	movq	%rdi, 248(%rsp)
	movq	272(%rsp), %rsi
	movq	%rsi, 280(%rsp)
	movq	240(%rsp), %r14
	movq	224(%rsp), %rdi
	movq	%rdi, 232(%rsp)
	movq	%r15, 216(%rsp)
	jmp	.L428
	.p2align 4,,10
	.p2align 3
.L445:
	movq	224(%rsp), %r14
	leaq	32(%r14), %rax
	movq	%rax, 224(%rsp)
	movq	ec_@GOTPCREL(%rip), %rax
	movq	224(%rsp), %rsi
	cmpq	448(%rax), %rsi
	jb	.L446
	movq	%rax, %rbx
	movq	216(%rsp), %rax
	movq	%rax, (%rbx)
	movq	240(%rsp), %rax
	movq	%rax, 24(%rbx)
	movq	%rsi, 16(%rbx)
	movq	%r13, 72(%rbx)
	orl	$1073741824, 64(%rbx)
	call	global_ov@PLT
	andl	$-1073741825, 64(%rbx)
.L446:
	movq	232(%rsp), %rax
	movq	216(%rsp), %rdi
	cmpq	(%rax), %rdi
	ja	.L447
	movabsq	$-9223372036854775553, %rax
	movq	%rax, 8(%r14)
	movq	%r14, (%r14)
	movq	232(%rsp), %rsi
	movq	(%rsi), %rdx
	movq	%rax, 8(%rdx)
	movq	(%rsi), %rax
	movq	%r14, (%rax)
	jmp	.L448
.L447:
	movabsq	$-9223372036854775553, %rax
	movq	%rax, 8(%r14)
	movq	232(%rsp), %rax
	movq	(%rax), %rax
	movq	%rax, (%r14)
.L448:
	movq	ec_@GOTPCREL(%rip), %rax
	cmpq	$0, 104(%rax)
	je	.L449
	movq	$0, 24(%r14)
	movq	104(%rax), %rax
	movq	%rax, 16(%r14)
	jmp	.L450
.L449:
	movq	$9, 24(%r14)
.L450:
	movq	ec_@GOTPCREL(%rip), %rax
	movq	%r14, 104(%rax)
	movq	224(%rsp), %rsi
	leaq	32(%rsi), %rdi
	movq	%rdi, 232(%rsp)
	cmpq	448(%rax), %rdi
	jb	.L451
	movq	%rax, %rbx
	movq	216(%rsp), %rax
	movq	%rax, (%rbx)
	movq	240(%rsp), %rax
	movq	%rax, 24(%rbx)
	movq	%rdi, 16(%rbx)
	movq	%r13, 72(%rbx)
	orl	$1073741824, 64(%rbx)
	call	global_ov@PLT
	andl	$-1073741825, 64(%rbx)
.L451:
	movq	216(%rsp), %rax
	cmpq	0(%rbp), %rax
	ja	.L452
	movabsq	$-9223372036854775553, %rax
	movq	224(%rsp), %rsi
	movq	%rax, 8(%rsi)
	movq	%rsi, %rdi
	movq	%rsi, (%rdi)
	movq	0(%rbp), %rdx
	movq	%rax, 8(%rdx)
	movq	0(%rbp), %rax
	movq	%rsi, (%rax)
	jmp	.L453
.L452:
	movq	224(%rsp), %rax
	movabsq	$-9223372036854775553, %rdi
	movq	%rdi, 8(%rax)
	movq	0(%rbp), %rax
	movq	224(%rsp), %rsi
	movq	%rax, (%rsi)
.L453:
	movq	ec_@GOTPCREL(%rip), %rax
	cmpq	$0, 104(%rax)
	je	.L454
	movq	224(%rsp), %rax
	movq	$0, 24(%rax)
	movq	ec_@GOTPCREL(%rip), %rax
	movq	104(%rax), %rax
	movq	224(%rsp), %rdi
	movq	%rax, 16(%rdi)
	jmp	.L455
.L454:
	movq	224(%rsp), %rax
	movq	$9, 24(%rax)
.L455:
	movq	ec_@GOTPCREL(%rip), %rax
	movq	224(%rsp), %rsi
	movq	%rsi, 104(%rax)
	jmp	.L456
.L443:
	movq	identical_proc_@GOTPCREL(%rip), %rax
	movq	296(%rsp), %rdi
	cmpq	(%rax), %rdi
	je	.L2203
	movq	not_identical_proc_@GOTPCREL(%rip), %rax
	cmpq	(%rax), %rdi
	jne	.L457
	movq	%r13, %rax
	leaq	8(%r13), %r13
	movq	(%rax), %rax
	movq	256(%rsp), %rdi
	movq	%rdi, 248(%rsp)
	movq	272(%rsp), %rsi
	movq	%rsi, 280(%rsp)
	movq	240(%rsp), %r14
	movq	224(%rsp), %rdi
	movq	%rdi, 232(%rsp)
	movq	%r15, 216(%rsp)
	jmp	.L428
	.p2align 4,,10
	.p2align 3
.L457:
	movq	224(%rsp), %rbx
	leaq	32(%rbx), %rax
	movq	%rax, 232(%rsp)
	movq	ec_@GOTPCREL(%rip), %rax
	movq	232(%rsp), %rsi
	cmpq	448(%rax), %rsi
	jb	.L458
	movq	%rax, %r14
	movq	216(%rsp), %rax
	movq	%rax, (%r14)
	movq	240(%rsp), %rax
	movq	%rax, 24(%r14)
	movq	%rsi, 16(%r14)
	movq	%r13, 72(%r14)
	orl	$1073741824, 64(%r14)
	call	global_ov@PLT
	andl	$-1073741825, 64(%r14)
.L458:
	movq	216(%rsp), %rax
	cmpq	0(%rbp), %rax
	ja	.L459
	movabsq	$-9223372036854775553, %rax
	movq	%rax, 8(%rbx)
	movq	%rbx, (%rbx)
	movq	0(%rbp), %rdx
	movq	%rax, 8(%rdx)
	movq	0(%rbp), %rax
	movq	%rbx, (%rax)
	jmp	.L460
.L459:
	movabsq	$-9223372036854775553, %rax
	movq	%rax, 8(%rbx)
	movq	0(%rbp), %rax
	movq	%rax, (%rbx)
.L460:
	movq	ec_@GOTPCREL(%rip), %rax
	cmpq	$0, 104(%rax)
	je	.L461
	movq	$0, 24(%rbx)
	movq	104(%rax), %rax
	movq	%rax, 16(%rbx)
	jmp	.L462
.L461:
	movq	$9, 24(%rbx)
.L462:
	movq	ec_@GOTPCREL(%rip), %rax
	movq	%rbx, 104(%rax)
	jmp	.L456
	.p2align 4,,10
	.p2align 3
.L442:
	testq	%rax, %rax
	jns	.L463
	movq	%r12, %r14
	movq	identical_proc_@GOTPCREL(%rip), %rax
	movq	296(%rsp), %rdi
	cmpq	(%rax), %rdi
	je	.L2204
	movq	not_identical_proc_@GOTPCREL(%rip), %rax
	cmpq	(%rax), %rdi
	jne	.L464
	movq	%r13, %rax
	leaq	8(%r13), %r13
	movq	(%rax), %rax
	movq	256(%rsp), %rdi
	movq	%rdi, 248(%rsp)
	movq	272(%rsp), %rsi
	movq	%rsi, 280(%rsp)
	movq	240(%rsp), %r14
	movq	224(%rsp), %rdi
	movq	%rdi, 232(%rsp)
	movq	%r15, 216(%rsp)
	jmp	.L428
.L464:
	movq	224(%rsp), %rbx
	leaq	32(%rbx), %rax
	movq	%rax, 232(%rsp)
	movq	ec_@GOTPCREL(%rip), %rax
	movq	232(%rsp), %rsi
	cmpq	448(%rax), %rsi
	jb	.L465
	movq	%rax, %rbp
	movq	216(%rsp), %rax
	movq	%rax, 0(%rbp)
	movq	240(%rsp), %rax
	movq	%rax, 24(%rbp)
	movq	%rsi, 16(%rbp)
	movq	%r13, 72(%rbp)
	orl	$1073741824, 64(%rbp)
	call	global_ov@PLT
	andl	$-1073741825, 64(%rbp)
.L465:
	movq	216(%rsp), %rax
	cmpq	(%r14), %rax
	ja	.L466
	movabsq	$-9223372036854775553, %rax
	movq	%rax, 8(%rbx)
	movq	%rbx, (%rbx)
	movq	(%r14), %rdx
	movq	%rax, 8(%rdx)
	movq	(%r14), %rax
	movq	%rbx, (%rax)
	jmp	.L467
.L466:
	movabsq	$-9223372036854775553, %rax
	movq	%rax, 8(%rbx)
	movq	(%r14), %rax
	movq	%rax, (%rbx)
.L467:
	movq	ec_@GOTPCREL(%rip), %rax
	cmpq	$0, 104(%rax)
	je	.L468
	movq	$0, 24(%rbx)
	movq	104(%rax), %rax
	movq	%rax, 16(%rbx)
	jmp	.L469
.L468:
	movq	$9, 24(%rbx)
.L469:
	movq	ec_@GOTPCREL(%rip), %rax
	movq	%rbx, 104(%rax)
	jmp	.L456
	.p2align 4,,10
	.p2align 3
.L463:
	cmpb	%al, %bl
	jne	.L470
	cmpb	$7, %bl
	jle	.L471
	movq	(%r12), %rax
	cmpq	%rax, 0(%rbp)
	je	.L437
	cmpb	$9, %bl
	je	.L437
	jmp	.L470
	.p2align 4,,10
	.p2align 3
.L471:
	movq	0(%rbp), %rbp
	movq	(%r12), %r12
	cmpq	%r12, %rbp
	je	.L437
	cmpb	$1, %bl
	jle	.L472
	cmpb	$4, %bl
	jne	.L473
	movq	0(%rbp), %rsi
	movl	%esi, %edx
	movslq	%esi, %rax
	cmpq	(%r12), %rax
	jne	.L474
	leaq	16(%rbp), %rcx
	cmpb	$19, 8(%rbp)
	je	.L476
	movq	16(%rbp), %rcx
.L476:
	cmpb	$19, 8(%r12)
	jne	.L477
	addq	$16, %r12
.L479:
	leal	-1(%rsi), %eax
	testl	%esi, %esi
	je	.L2205
	movzbl	(%r12), %edi
	cmpb	%dil, (%rcx)
	jne	.L2206
	leal	-2(%rsi), %eax
	jmp	.L478
.L477:
	movq	16(%r12), %r12
	jmp	.L479
	.p2align 4,,10
	.p2align 3
.L480:
	subl	$1, %eax
	movzbl	(%r12), %esi
	cmpb	%sil, (%rcx)
	jne	.L474
.L478:
	addq	$1, %rcx
	addq	$1, %r12
	movl	%eax, %edx
	cmpl	$-1, %eax
	jne	.L480
	jmp	.L474
.L2205:
	movl	%eax, %edx
	jmp	.L474
.L2206:
	movl	%eax, %edx
.L474:
	testl	%edx, %edx
	.p2align 4,,5
	js	.L437
	.p2align 4,,5
	jmp	.L470
	.p2align 4,,10
	.p2align 3
.L473:
	movq	ec_@GOTPCREL(%rip), %r14
	movq	216(%rsp), %rax
	movq	%rax, (%r14)
	movq	240(%rsp), %rax
	movq	%rax, 24(%r14)
	movq	224(%rsp), %rax
	movq	%rax, 16(%r14)
	movq	%r13, 72(%r14)
	orl	$1073741824, 64(%r14)
	movsbl	%bl, %eax
	cltq
	leaq	(%rax,%rax,4), %rdx
	leaq	(%rax,%rdx,8), %rax
	salq	$4, %rax
	movq	%r12, %rsi
	movq	%rbp, %rdi
	call	*5104(%r14,%rax)
	andl	$-1073741825, 64(%r14)
	testl	%eax, %eax
	jne	.L437
	jmp	.L470
	.p2align 4,,10
	.p2align 3
.L472:
	movq	ec_@GOTPCREL(%rip), %rax
	movl	68(%rax), %eax
	testb	$32, %al
	je	.L481
	movq	ec_@GOTPCREL(%rip), %r14
	movq	216(%rsp), %rax
	movq	%rax, (%r14)
	movq	240(%rsp), %rax
	movq	%rax, 24(%r14)
	movq	224(%rsp), %rax
	movq	%rax, 16(%r14)
	movq	%r13, 72(%r14)
	orl	$1073741824, 64(%r14)
	call	ec_handle_async@PLT
	andl	$-1073741825, 64(%r14)
.L481:
	testb	%bl, %bl
	jne	.L482
	jmp	.L483
.L2211:
	movq	%rbx, %r12
.L483:
	movq	216(%rsp), %rax
	leaq	-16(%rax), %rbx
	movq	%rbp, -16(%rax)
	movq	%r12, -8(%rax)
	movq	%rbx, 216(%rsp)
	movq	ec_@GOTPCREL(%rip), %rax
	cmpq	472(%rax), %rbx
	ja	.L430
	movq	%rbx, (%rax)
	movq	240(%rsp), %rsi
	movq	%rsi, 24(%rax)
	movq	224(%rsp), %rdi
	movq	%rdi, 16(%rax)
	movq	%r13, 72(%rax)
	orl	$1073741824, 64(%rax)
	call	local_ov@PLT
	testl	%eax, %eax
	je	.L484
	movq	256(%rsp), %rax
	movq	%rax, 248(%rsp)
	movq	272(%rsp), %rax
	movq	%rax, 280(%rsp)
	movq	240(%rsp), %r14
	movq	224(%rsp), %rax
	movq	%rax, 232(%rsp)
	movq	%rbx, 216(%rsp)
	jmp	.L411
	.p2align 4,,10
	.p2align 3
.L484:
	movq	ec_@GOTPCREL(%rip), %rax
	andl	$-1073741825, 64(%rax)
	movq	%rbx, 216(%rsp)
	jmp	.L430
.L482:
	movq	0(%rbp), %rax
	leaq	16(%r12), %rbx
	cmpq	(%r12), %rax
	jne	.L2208
	addq	$16, %rbp
	movq	(%rax), %rax
	cmpq	$1, %rax
	je	.L2210
	cmpq	$2, %rax
	je	.L2211
	testq	%rax, %rax
	je	.L2209
	movq	216(%rsp), %rdi
	leaq	-24(%rdi), %rsi
	movq	%rsi, 320(%rsp)
	leaq	-3(%rax,%rax), %rax
	movq	%rax, -24(%rdi)
	movq	%rbp, -16(%rdi)
	movq	%rbx, -8(%rdi)
	movq	%rbx, %r12
	movq	320(%rsp), %rax
	movq	%rax, 216(%rsp)
	movq	ec_@GOTPCREL(%rip), %rax
	movq	320(%rsp), %rdi
	cmpq	472(%rax), %rdi
	ja	.L430
	movq	%rdi, (%rax)
	movq	240(%rsp), %rdi
	movq	%rdi, 24(%rax)
	movq	224(%rsp), %rsi
	movq	%rsi, 16(%rax)
	movq	%r13, 72(%rax)
	orl	$1073741824, 64(%rax)
	call	local_ov@PLT
	testl	%eax, %eax
	je	.L486
	movq	256(%rsp), %rax
	movq	%rax, 248(%rsp)
	movq	272(%rsp), %rax
	movq	%rax, 280(%rsp)
	movq	240(%rsp), %r14
	movq	224(%rsp), %rax
	movq	%rax, 232(%rsp)
	movq	320(%rsp), %rax
	movq	%rax, 216(%rsp)
	jmp	.L411
	.p2align 4,,10
	.p2align 3
.L486:
	movq	ec_@GOTPCREL(%rip), %rax
	andl	$-1073741825, 64(%rax)
	movq	%rbx, %r12
	movq	320(%rsp), %rax
	movq	%rax, 216(%rsp)
	jmp	.L430
.L2209:
	movq	%rbx, %r12
.L437:
	cmpq	%r15, 216(%rsp)
	jae	.L487
	movq	216(%rsp), %rax
	movq	(%rax), %rax
	testb	$1, %al
	je	.L488
	movq	216(%rsp), %rsi
	movq	8(%rsi), %rdi
	leaq	16(%rdi), %rbp
	movq	216(%rsp), %rdi
	movq	%rbp, 8(%rdi)
	movq	16(%rdi), %rdi
	movq	%rdi, 232(%rsp)
	leaq	16(%rdi), %r12
	movq	216(%rsp), %rdi
	movq	%r12, 16(%rdi)
	subq	$2, %rax
	cmpq	$1, %rax
	jle	.L489
	movq	%rax, (%rdi)
	jmp	.L430
	.p2align 4,,10
	.p2align 3
.L489:
	addq	$8, 216(%rsp)
	jmp	.L430
	.p2align 4,,10
	.p2align 3
.L488:
	leaq	16(%rax), %rbp
	movq	216(%rsp), %rax
	movq	8(%rax), %rax
	movq	%rax, 232(%rsp)
	leaq	16(%rax), %r12
	addq	$16, 216(%rsp)
	jmp	.L430
.L487:
	movq	identical_proc_@GOTPCREL(%rip), %rax
	movq	296(%rsp), %rdi
	cmpq	(%rax), %rdi
	jne	.L1440
	movq	%r13, %rax
	leaq	8(%r13), %r13
	movq	(%rax), %rax
	movq	256(%rsp), %rsi
	movq	%rsi, 248(%rsp)
	movq	272(%rsp), %rdi
	movq	%rdi, 280(%rsp)
	movq	240(%rsp), %r14
	movq	224(%rsp), %rsi
	movq	%rsi, 232(%rsp)
	jmp	.L428
.L2208:
	movq	%rbx, %r12
.L470:
	movq	identical_proc_@GOTPCREL(%rip), %rax
	movq	296(%rsp), %rdi
	cmpq	(%rax), %rdi
	je	.L2213
	movq	not_ident_list_proc_@GOTPCREL(%rip), %rax
	cmpq	(%rax), %rdi
	jne	.L490
	movq	%r13, %rax
	leaq	8(%r13), %r13
	movq	(%rax), %rbp
	cmpq	$0, 8(%rbp)
	jns	.L491
	cmpq	0(%rbp), %rbp
	je	.L491
.L492:
	movq	0(%rbp), %rbp
	cmpq	$0, 8(%rbp)
	jns	.L491
	cmpq	%rbp, 0(%rbp)
	jne	.L492
.L491:
	cmpb	$-1, 8(%rbp)
	jne	.L493
	cmpq	272(%rsp), %rbp
	jae	.L2556
	cmpq	256(%rsp), %rbp
	jae	.L494
.L2556:
	movq	ec_@GOTPCREL(%rip), %rax
	movq	8(%rax), %rdx
	leaq	-8(%rdx), %rcx
	movq	%rcx, 8(%rax)
	movq	%rbp, -8(%rdx)
	movq	456(%rax), %rdi
	cmpq	%rdi, 8(%rax)
	ja	.L494
	movq	%rax, %rbx
	movq	%r15, (%rax)
	movq	240(%rsp), %rax
	movq	%rax, 24(%rbx)
	movq	224(%rsp), %rax
	movq	%rax, 16(%rbx)
	movq	%r13, 72(%rbx)
	orl	$1073741824, 64(%rbx)
	call	trail_ov@PLT
	andl	$-1073741825, 64(%rbx)
.L494:
	movq	$9, 8(%rbp)
	movq	%r13, %rax
	leaq	8(%r13), %r13
	movq	(%rax), %rax
	movq	256(%rsp), %rsi
	movq	%rsi, 248(%rsp)
	movq	272(%rsp), %rdi
	movq	%rdi, 280(%rsp)
	movq	240(%rsp), %r14
	movq	224(%rsp), %rsi
	movq	%rsi, 232(%rsp)
	movq	%r15, 216(%rsp)
	jmp	.L428
	.p2align 4,,10
	.p2align 3
.L493:
	movq	$9, 360(%rsp)
	movq	256(%rsp), %rax
	movq	%rax, 248(%rsp)
	movq	272(%rsp), %rax
	movq	%rax, 280(%rsp)
	movq	240(%rsp), %r14
	movq	224(%rsp), %rax
	movq	%rax, 232(%rsp)
	movq	%r15, 216(%rsp)
	leaq	352(%rsp), %r12
	jmp	.L496
.L490:
	movq	ec_@GOTPCREL(%rip), %rax
	movq	80(%rax), %rax
	testq	%rax, %rax
	je	.L497
	cmpq	%rax, 256(%rsp)
	jbe	.L498
	movq	ec_@GOTPCREL(%rip), %rax
	movq	8(%rax), %rdx
	leaq	-8(%rdx), %rcx
	movq	%rcx, 8(%rax)
	movq	80(%rax), %rcx
	movq	8(%rcx), %rcx
	movq	%rcx, -8(%rdx)
	movq	8(%rax), %rdx
	leaq	-8(%rdx), %rcx
	movq	%rcx, 8(%rax)
	movq	80(%rax), %rcx
	movq	%rcx, -8(%rdx)
	movq	8(%rax), %rdx
	leaq	-8(%rdx), %rcx
	movq	%rcx, 8(%rax)
	movq	$266, -8(%rdx)
	movq	456(%rax), %rdi
	cmpq	%rdi, 8(%rax)
	ja	.L498
	movq	%rax, %rbx
	movq	%r15, (%rax)
	movq	240(%rsp), %rax
	movq	%rax, 24(%rbx)
	movq	224(%rsp), %rax
	movq	%rax, 16(%rbx)
	movq	%r13, 72(%rbx)
	orl	$1073741824, 64(%rbx)
	call	trail_ov@PLT
	andl	$-1073741825, 64(%rbx)
.L498:
	movq	ec_@GOTPCREL(%rip), %rax
	movq	80(%rax), %rdx
	orq	$512, 8(%rdx)
	movq	$0, 80(%rax)
.L497:
	movq	%r13, %rax
	leaq	8(%r13), %r13
	movq	(%rax), %rax
	movq	256(%rsp), %rsi
	movq	%rsi, 248(%rsp)
	movq	272(%rsp), %rdi
	movq	%rdi, 280(%rsp)
	movq	240(%rsp), %r14
	movq	224(%rsp), %rsi
	movq	%rsi, 232(%rsp)
	movq	%r15, 216(%rsp)
	jmp	.L428
.L456:
	movq	inequality_proc_@GOTPCREL(%rip), %rax
	movq	296(%rsp), %rdi
	cmpq	(%rax), %rdi
	jne	.L499
	movq	%r15, 216(%rsp)
	movl	$24, %ebp
	movq	ec_@GOTPCREL(%rip), %rax
	cmpq	$0, 80(%rax)
	jne	.L500
	movq	40(%rdi), %rax
	movq	%rax, 288(%rsp)
	movq	ec_@GOTPCREL(%rip), %rax
	movq	232(%rsp), %rsi
	movq	%rsi, 80(%rax)
	leaq	80(%rsi), %rcx
	movq	88(%rax), %rdx
	movq	%rdx, (%rsi)
	movq	%rsi, 88(%rax)
	movq	296(%rsp), %rax
	movl	48(%rax), %eax
	andl	$2097152, %eax
	cmpl	$1, %eax
	sbbq	%rax, %rax
	xorb	%al, %al
	addq	$271, %rax
	movq	%rax, 8(%rsi)
	movq	296(%rsp), %rdi
	movq	%rdi, 16(%rsi)
	movq	$0, 24(%rsi)
	movq	ec_@GOTPCREL(%rip), %rax
	movq	48(%rax), %rax
	movq	-8(%rax), %rax
	movq	8(%rax), %rax
	movq	%rax, 32(%rsi)
	movzbl	52(%rdi), %eax
	movl	%eax, %edx
	andl	$15, %edx
	shrb	$4, %al
	movzbl	%al, %eax
	cmpl	%edx, %eax
	cmovg	%edx, %eax
	sall	$24, %eax
	sall	$20, %edx
	orl	%edx, %eax
	cltq
	movabsq	$-9223372036854775553, %rdx
	orq	%rdx, %rax
	movq	%rax, 40(%rsi)
	movq	$1, 56(%rsi)
	movq	%rcx, 48(%rsi)
	movq	$11, 72(%rsi)
	movq	296(%rsp), %rax
	movq	24(%rax), %rax
	movq	%rax, 64(%rsi)
	movq	$11, 88(%rsi)
	movq	288(%rsp), %rdi
	movq	%rdi, 80(%rsi)
	leaq	96(%rsi), %r12
	leaq	128(%rsi), %r14
	movq	-16(%r13), %rbx
	cmpq	$0, 8(%rbx)
	jns	.L505
	cmpq	(%rbx), %rbx
	je	.L503
.L504:
	movq	(%rbx), %rbx
	cmpq	$0, 8(%rbx)
	jns	.L505
	cmpq	%rbx, (%rbx)
	jne	.L504
.L503:
	cmpq	%rbx, %r15
	ja	.L505
	cmpq	%rbx, 272(%rsp)
	ja	.L506
	movq	ec_@GOTPCREL(%rip), %rax
	movq	8(%rax), %rdx
	leaq	-8(%rdx), %rcx
	movq	%rcx, 8(%rax)
	movq	%rbx, -8(%rdx)
	movq	456(%rax), %rsi
	cmpq	%rsi, 8(%rax)
	ja	.L506
	movq	%rax, %rbp
	movq	%r15, (%rax)
	movq	240(%rsp), %rax
	movq	%rax, 24(%rbp)
	movq	%r14, 16(%rbp)
	movq	%r13, 72(%rbp)
	orl	$1073741824, 64(%rbp)
	call	trail_ov@PLT
	andl	$-1073741825, 64(%rbp)
.L506:
	movq	%r12, (%rbx)
	movq	232(%rsp), %rax
	movq	%r12, 96(%rax)
	leaq	112(%rax), %rbp
	movabsq	$-9223372036854775553, %rdi
	movq	%rdi, 104(%rax)
	jmp	.L507
.L505:
	movq	232(%rsp), %rax
	leaq	112(%rax), %rbp
	movq	(%rbx), %rax
	movq	8(%rbx), %rdx
	movq	232(%rsp), %rsi
	movq	%rax, 96(%rsi)
	movq	%rdx, 104(%rsi)
.L507:
	movq	-8(%r13), %rbx
	cmpq	$0, 8(%rbx)
	jns	.L511
	cmpq	(%rbx), %rbx
	je	.L509
.L510:
	movq	(%rbx), %rbx
	cmpq	$0, 8(%rbx)
	jns	.L511
	cmpq	%rbx, (%rbx)
	jne	.L510
.L509:
	cmpq	%r15, %rbx
	jb	.L511
	cmpq	%rbx, 272(%rsp)
	ja	.L512
	movq	ec_@GOTPCREL(%rip), %rax
	movq	8(%rax), %rdx
	leaq	-8(%rdx), %rcx
	movq	%rcx, 8(%rax)
	movq	%rbx, -8(%rdx)
	movq	456(%rax), %rdi
	cmpq	%rdi, 8(%rax)
	ja	.L512
	movq	%rax, %r12
	movq	%r15, (%rax)
	movq	240(%rsp), %rax
	movq	%rax, 24(%r12)
	movq	%r14, 16(%r12)
	movq	%r13, 72(%r12)
	orl	$1073741824, 64(%r12)
	call	trail_ov@PLT
	andl	$-1073741825, 64(%r12)
.L512:
	movq	%rbp, (%rbx)
	movq	%rbp, 0(%rbp)
	leaq	16(%rbp), %rax
	movq	%rax, 264(%rsp)
	movabsq	$-9223372036854775553, %rax
	movq	%rax, 8(%rbp)
	jmp	.L513
.L511:
	leaq	16(%rbp), %rax
	movq	%rax, 264(%rsp)
	movq	(%rbx), %rax
	movq	8(%rbx), %rdx
	movq	%rax, 0(%rbp)
	movq	%rdx, 8(%rbp)
.L513:
	movq	ec_@GOTPCREL(%rip), %rax
	cmpq	448(%rax), %r14
	jb	.L2216
	movq	%rax, %rbx
	movq	%r15, (%rax)
	movq	240(%rsp), %rax
	movq	%rax, 24(%rbx)
	movq	%r14, 16(%rbx)
	movq	%r13, 72(%rbx)
	orl	$1073741824, 64(%rbx)
	call	global_ov@PLT
	andl	$-1073741825, 64(%rbx)
	movq	%r14, 232(%rsp)
	movq	%r15, 216(%rsp)
	movl	$24, %ebp
	jmp	.L500
	.p2align 4,,10
	.p2align 3
.L499:
	movq	%r13, %rax
	leaq	8(%r13), %r13
	movq	(%rax), %rbp
	cmpq	$0, 8(%rbp)
	jns	.L514
	cmpq	0(%rbp), %rbp
	je	.L514
.L515:
	movq	0(%rbp), %rbp
	cmpq	$0, 8(%rbp)
	jns	.L514
	cmpq	%rbp, 0(%rbp)
	jne	.L515
.L514:
	cmpb	$-1, 8(%rbp)
	jne	.L516
	cmpq	272(%rsp), %rbp
	jae	.L2557
	cmpq	256(%rsp), %rbp
	jae	.L517
.L2557:
	movq	ec_@GOTPCREL(%rip), %rax
	movq	8(%rax), %rdx
	leaq	-8(%rdx), %rcx
	movq	%rcx, 8(%rax)
	movq	%rbp, -8(%rdx)
	movq	456(%rax), %rsi
	cmpq	%rsi, 8(%rax)
	ja	.L517
	movq	%rax, %rbx
	movq	%r15, (%rax)
	movq	240(%rsp), %rax
	movq	%rax, 24(%rbx)
	movq	232(%rsp), %rax
	movq	%rax, 16(%rbx)
	movq	%r13, 72(%rbx)
	orl	$1073741824, 64(%rbx)
	call	trail_ov@PLT
	andl	$-1073741825, 64(%rbx)
.L517:
	movq	ec_@GOTPCREL(%rip), %rax
	movq	104(%rax), %rdx
	movq	%rdx, 0(%rbp)
	movq	$0, 8(%rbp)
	movq	$0, 104(%rax)
	movq	%r13, %rax
	leaq	8(%r13), %r13
	movq	(%rax), %rax
	movq	256(%rsp), %rdi
	movq	%rdi, 248(%rsp)
	movq	272(%rsp), %rsi
	movq	%rsi, 280(%rsp)
	movq	240(%rsp), %r14
	movq	%r15, 216(%rsp)
	jmp	.L428
.L516:
	movq	ec_@GOTPCREL(%rip), %rax
	movq	104(%rax), %rdx
	movq	%rdx, 352(%rsp)
	movq	$0, 360(%rsp)
	movq	$0, 104(%rax)
	movq	256(%rsp), %rax
	movq	%rax, 248(%rsp)
	movq	272(%rsp), %rax
	movq	%rax, 280(%rsp)
	movq	240(%rsp), %r14
	movq	%r15, 216(%rsp)
	leaq	352(%rsp), %r12
	jmp	.L496
.L2385:
	movq	ec_@GOTPCREL(%rip), %rax
	leaq	832(%rax), %r12
	leaq	352(%rsp), %rbp
.L496:
	movq	216(%rsp), %r15
	jmp	.L519
	.p2align 4,,10
	.p2align 3
.L2217:
	movq	%rax, %rbp
	jmp	.L519
.L2223:
	movq	%rbx, %r12
.L519:
	movq	8(%rbp), %rbx
	testq	%rbx, %rbx
	js	.L521
.L524:
	cmpq	$0, 8(%r12)
	jns	.L522
	cmpq	(%r12), %r12
	jne	.L2599
	jmp	.L522
	.p2align 4,,10
	.p2align 3
.L521:
	movq	0(%rbp), %rax
	cmpq	%rbp, %rax
	jne	.L2217
	.p2align 4,,4
	jmp	.L524
	.p2align 4,,10
	.p2align 3
.L2599:
	movq	(%r12), %r12
	cmpq	$0, 8(%r12)
	jns	.L522
	cmpq	%r12, (%r12)
	jne	.L2599
.L522:
	movb	%bl, 224(%rsp)
	cmpb	$-1, %bl
	jne	.L526
	movq	8(%r12), %rax
	cmpb	$-1, %al
	jne	.L527
	cmpq	%r12, %rbp
	jae	.L528
	cmpq	232(%rsp), %rbp
	jae	.L529
	cmpq	280(%rsp), %r12
	jae	.L2558
	cmpq	248(%rsp), %r12
	jae	.L530
.L2558:
	movq	ec_@GOTPCREL(%rip), %rdx
	movq	8(%rdx), %rcx
	leaq	-8(%rcx), %rax
	movq	%rax, 8(%rdx)
	movq	%r12, -8(%rcx)
	movq	456(%rdx), %rax
	cmpq	%rax, 8(%rdx)
	ja	.L530
	movq	%rdx, %rbx
	movq	%r15, (%rdx)
	movq	%r14, 24(%rdx)
	movq	232(%rsp), %rax
	movq	%rax, 16(%rdx)
	movq	%r13, 72(%rdx)
	orl	$1073741824, 64(%rdx)
	call	trail_ov@PLT
	andl	$-1073741825, 64(%rbx)
.L530:
	movq	%rbp, (%r12)
	jmp	.L532
.L529:
	cmpq	280(%rsp), %rbp
	jb	.L533
	movq	ec_@GOTPCREL(%rip), %rdx
	movq	8(%rdx), %rcx
	leaq	-8(%rcx), %rax
	movq	%rax, 8(%rdx)
	movq	%rbp, -8(%rcx)
	movq	456(%rdx), %rax
	cmpq	%rax, 8(%rdx)
	ja	.L533
	movq	%rdx, %rbx
	movq	%r15, (%rdx)
	movq	%r14, 24(%rdx)
	movq	232(%rsp), %rax
	movq	%rax, 16(%rdx)
	movq	%r13, 72(%rdx)
	orl	$1073741824, 64(%rdx)
	call	trail_ov@PLT
	andl	$-1073741825, 64(%rbx)
.L533:
	movq	%r12, 0(%rbp)
	jmp	.L532
.L528:
	cmpq	%r12, %rbp
	jbe	.L532
	cmpq	%r12, 232(%rsp)
	jbe	.L534
	cmpq	280(%rsp), %rbp
	jae	.L2559
	cmpq	248(%rsp), %rbp
	jae	.L535
.L2559:
	movq	ec_@GOTPCREL(%rip), %rdx
	movq	8(%rdx), %rcx
	leaq	-8(%rcx), %rax
	movq	%rax, 8(%rdx)
	movq	%rbp, -8(%rcx)
	movq	456(%rdx), %rax
	cmpq	%rax, 8(%rdx)
	ja	.L535
	movq	%rdx, %rbx
	movq	%r15, (%rdx)
	movq	%r14, 24(%rdx)
	movq	232(%rsp), %rax
	movq	%rax, 16(%rdx)
	movq	%r13, 72(%rdx)
	orl	$1073741824, 64(%rdx)
	call	trail_ov@PLT
	andl	$-1073741825, 64(%rbx)
.L535:
	movq	%r12, 0(%rbp)
	jmp	.L532
.L534:
	cmpq	%r12, 280(%rsp)
	ja	.L537
	movq	ec_@GOTPCREL(%rip), %rdx
	movq	8(%rdx), %rcx
	leaq	-8(%rcx), %rax
	movq	%rax, 8(%rdx)
	movq	%r12, -8(%rcx)
	movq	456(%rdx), %rax
	cmpq	%rax, 8(%rdx)
	ja	.L537
	movq	%rdx, %rbx
	movq	%r15, (%rdx)
	movq	%r14, 24(%rdx)
	movq	232(%rsp), %rax
	movq	%rax, 16(%rdx)
	movq	%r13, 72(%rdx)
	orl	$1073741824, 64(%rdx)
	call	trail_ov@PLT
	andl	$-1073741825, 64(%rbx)
.L537:
	movq	%rbp, (%r12)
	jmp	.L532
	.p2align 4,,10
	.p2align 3
.L527:
	testq	%rax, %rax
	jns	.L538
	cmpq	280(%rsp), %rbp
	jae	.L2560
	cmpq	248(%rsp), %rbp
	jae	.L539
.L2560:
	movq	ec_@GOTPCREL(%rip), %rdx
	movq	8(%rdx), %rcx
	leaq	-8(%rcx), %rax
	movq	%rax, 8(%rdx)
	movq	%rbp, -8(%rcx)
	movq	456(%rdx), %rax
	cmpq	%rax, 8(%rdx)
	ja	.L539
	movq	%rdx, %rbx
	movq	%r15, (%rdx)
	movq	%r14, 24(%rdx)
	movq	232(%rsp), %rax
	movq	%rax, 16(%rdx)
	movq	%r13, 72(%rdx)
	orl	$1073741824, 64(%rdx)
	call	trail_ov@PLT
	andl	$-1073741825, 64(%rbx)
.L539:
	movq	(%r12), %rax
	movq	%rax, 0(%rbp)
	jmp	.L532
	.p2align 4,,10
	.p2align 3
.L538:
	movq	ec_@GOTPCREL(%rip), %rdx
	movq	200(%rdx), %rsi
	cmpq	%rsi, 0(%rbp)
	jae	.L541
	cmpb	$1, %al
	ja	.L541
	movq	8(%r12), %rcx
	movq	8(%rbp), %rsi
	movq	(%r12), %rdx
	movq	0(%rbp), %rdi
	call	ec_occurs@PLT
	testl	%eax, %eax
	jne	.L542
.L541:
	cmpq	280(%rsp), %rbp
	jae	.L2561
	cmpq	248(%rsp), %rbp
	jae	.L543
.L2561:
	movq	ec_@GOTPCREL(%rip), %rdx
	movq	8(%rdx), %rcx
	leaq	-8(%rcx), %rax
	movq	%rax, 8(%rdx)
	movq	%rbp, -8(%rcx)
	movq	456(%rdx), %rax
	cmpq	%rax, 8(%rdx)
	ja	.L543
	movq	%rdx, %rbx
	movq	%r15, (%rdx)
	movq	%r14, 24(%rdx)
	movq	232(%rsp), %rax
	movq	%rax, 16(%rdx)
	movq	%r13, 72(%rdx)
	orl	$1073741824, 64(%rdx)
	call	trail_ov@PLT
	andl	$-1073741825, 64(%rbx)
.L543:
	movq	(%r12), %rax
	movq	%rax, 0(%rbp)
	movq	8(%r12), %rax
	movq	%rax, 8(%rbp)
	jmp	.L532
	.p2align 4,,10
	.p2align 3
.L526:
	movq	8(%r12), %rax
	cmpb	$-1, %al
	jne	.L545
	testq	%rbx, %rbx
	jns	.L546
	cmpq	280(%rsp), %r12
	jae	.L2562
	cmpq	248(%rsp), %r12
	jae	.L547
.L2562:
	movq	ec_@GOTPCREL(%rip), %rdx
	movq	8(%rdx), %rcx
	leaq	-8(%rcx), %rax
	movq	%rax, 8(%rdx)
	movq	%r12, -8(%rcx)
	movq	456(%rdx), %rax
	cmpq	%rax, 8(%rdx)
	ja	.L547
	movq	%rdx, %rbx
	movq	%r15, (%rdx)
	movq	%r14, 24(%rdx)
	movq	232(%rsp), %rax
	movq	%rax, 16(%rdx)
	movq	%r13, 72(%rdx)
	orl	$1073741824, 64(%rdx)
	call	trail_ov@PLT
	andl	$-1073741825, 64(%rbx)
.L547:
	movq	0(%rbp), %rax
	movq	%rax, (%r12)
	jmp	.L532
	.p2align 4,,10
	.p2align 3
.L546:
	movq	ec_@GOTPCREL(%rip), %rax
	movq	200(%rax), %rax
	cmpq	%rax, (%r12)
	jae	.L549
	cmpb	$1, %bl
	ja	.L549
	movq	8(%rbp), %rcx
	movq	8(%r12), %rsi
	movq	0(%rbp), %rdx
	movq	(%r12), %rdi
	call	ec_occurs@PLT
	testl	%eax, %eax
	jne	.L542
.L549:
	cmpq	280(%rsp), %r12
	jae	.L2563
	cmpq	248(%rsp), %r12
	jae	.L550
.L2563:
	movq	ec_@GOTPCREL(%rip), %rcx
	movq	8(%rcx), %rdx
	leaq	-8(%rdx), %rax
	movq	%rax, 8(%rcx)
	movq	%r12, -8(%rdx)
	movq	456(%rcx), %rax
	cmpq	%rax, 8(%rcx)
	ja	.L550
	movq	%r15, (%rcx)
	movq	%r14, 24(%rcx)
	movq	232(%rsp), %rdi
	movq	%rdi, 16(%rcx)
	movq	%r13, 72(%rcx)
	orl	$1073741824, 64(%rcx)
	call	trail_ov@PLT
	movq	ec_@GOTPCREL(%rip), %rax
	andl	$-1073741825, 64(%rax)
.L550:
	movq	0(%rbp), %rax
	movq	%rax, (%r12)
	movq	%rbx, 8(%r12)
	jmp	.L532
	.p2align 4,,10
	.p2align 3
.L545:
	testq	%rbx, %rbx
	jns	.L552
	movq	0(%rbp), %rdi
	movq	%rdi, 224(%rsp)
	testq	%rax, %rax
	jns	.L553
	movq	(%r12), %r12
	cmpq	%r12, %rdi
	jne	.L554
	jmp	.L532
	.p2align 4,,10
	.p2align 3
.L553:
	movq	ec_@GOTPCREL(%rip), %rax
	movq	224(%rsp), %rsi
	movq	200(%rax), %rax
	cmpq	%rax, (%rsi)
	jae	.L555
	cmpb	$1, 8(%r12)
	ja	.L555
	movq	8(%r12), %rcx
	movq	%rsi, %rax
	movq	8(%rsi), %rsi
	movq	(%r12), %rdx
	movq	(%rax), %rdi
	call	ec_occurs@PLT
	testl	%eax, %eax
	jne	.L542
.L555:
	cmpb	$-2, %bl
	jne	.L556
	movq	248(%rsp), %rax
	cmpq	%rax, 224(%rsp)
	jae	.L557
	movq	ec_@GOTPCREL(%rip), %rcx
	movq	8(%rcx), %rdx
	leaq	-8(%rdx), %rax
	movq	%rax, 8(%rcx)
	movq	224(%rsp), %rax
	movq	%rax, -8(%rdx)
	movq	8(%rcx), %rsi
	leaq	-8(%rsi), %rax
	movq	%rax, 8(%rcx)
	movq	224(%rsp), %rax
	movq	8(%rax), %rax
	movabsq	$-9223372036854775808, %rdx
	andq	%rax, %rdx
	salq	$2, %rax
	orq	%rax, %rdx
	orq	$1, %rdx
	movq	%rdx, -8(%rsi)
	movq	456(%rcx), %rax
	cmpq	%rax, 8(%rcx)
	ja	.L557
	movq	%rcx, %rbx
	movq	%r15, (%rcx)
	movq	%r14, 24(%rcx)
	movq	232(%rsp), %rax
	movq	%rax, 16(%rcx)
	movq	%r13, 72(%rcx)
	orl	$1073741824, 64(%rcx)
	call	trail_ov@PLT
	andl	$-1073741825, 64(%rbx)
.L557:
	movq	(%r12), %rax
	movq	8(%r12), %rdx
	movq	224(%rsp), %rsi
	movq	%rax, (%rsi)
	movq	%rdx, 8(%rsi)
	jmp	.L532
	.p2align 4,,10
	.p2align 3
.L556:
	cmpb	$-3, %bl
	jne	.L554
	movq	248(%rsp), %rax
	cmpq	%rax, 224(%rsp)
	jae	.L558
	movq	ec_@GOTPCREL(%rip), %rcx
	movq	8(%rcx), %rdx
	leaq	-8(%rdx), %rax
	movq	%rax, 8(%rcx)
	movq	224(%rsp), %rax
	movq	%rax, -8(%rdx)
	movq	8(%rcx), %rsi
	leaq	-8(%rsi), %rax
	movq	%rax, 8(%rcx)
	movq	224(%rsp), %rax
	movq	8(%rax), %rax
	movabsq	$-9223372036854775808, %rdx
	andq	%rax, %rdx
	salq	$2, %rax
	orq	%rax, %rdx
	orq	$1, %rdx
	movq	%rdx, -8(%rsi)
	movq	456(%rcx), %rax
	cmpq	%rax, 8(%rcx)
	ja	.L558
	movq	%rcx, %rbx
	movq	%r15, (%rcx)
	movq	%r14, 24(%rcx)
	movq	232(%rsp), %rax
	movq	%rax, 16(%rcx)
	movq	%r13, 72(%rcx)
	orl	$1073741824, 64(%rcx)
	call	trail_ov@PLT
	andl	$-1073741825, 64(%rbx)
.L558:
	movq	(%r12), %rax
	movq	8(%r12), %rdx
	movq	224(%rsp), %rdi
	movq	%rax, (%rdi)
	movq	%rdx, 8(%rdi)
	movq	232(%rsp), %rax
	leaq	32(%rax), %rbp
	movq	ec_@GOTPCREL(%rip), %rax
	cmpq	448(%rax), %rbp
	jb	.L559
	movq	%rax, %rbx
	movq	%r15, (%rax)
	movq	%r14, 24(%rax)
	movq	%rbp, 16(%rax)
	movq	%r13, 72(%rax)
	orl	$1073741824, 64(%rax)
	call	global_ov@PLT
	andl	$-1073741825, 64(%rbx)
.L559:
	movq	232(%rsp), %rax
	movq	224(%rsp), %rsi
	movq	%rsi, (%rax)
	movq	$0, 8(%rax)
	movq	ec_@GOTPCREL(%rip), %rax
	movq	96(%rax), %rax
	testq	%rax, %rax
	je	.L560
	movq	232(%rsp), %rdi
	movq	%rax, 16(%rdi)
	movq	$0, 24(%rdi)
	jmp	.L561
.L560:
	movq	232(%rsp), %rax
	movq	$9, 24(%rax)
	movq	ec_@GOTPCREL(%rip), %rax
	movq	$0, 424(%rax)
.L561:
	movq	ec_@GOTPCREL(%rip), %rax
	movq	232(%rsp), %rsi
	movq	%rsi, 96(%rax)
	movq	%rbp, 232(%rsp)
	jmp	.L532
	.p2align 4,,10
	.p2align 3
.L554:
	movq	ec_@GOTPCREL(%rip), %rax
	movq	280(%rsp), %rsi
	movq	%rsi, 32(%rax)
	movq	248(%rsp), %rdi
	movq	%rdi, 40(%rax)
	movq	%r15, (%rax)
	movq	%r14, 24(%rax)
	movq	232(%rsp), %rsi
	movq	%rsi, 16(%rax)
	movq	%r13, 72(%rax)
	orl	$1073741824, 64(%rax)
	leaq	96(%rax), %rdx
	movq	%r12, %rsi
	movq	224(%rsp), %rdi
	call	bind_c@PLT
	testl	%eax, %eax
	jne	.L562
	movq	ec_@GOTPCREL(%rip), %rax
	movq	16(%rax), %rdi
	movq	%rdi, 232(%rsp)
	andl	$-1073741825, 64(%rax)
	jmp	.L532
.L562:
	movq	ec_@GOTPCREL(%rip), %rax
	movq	16(%rax), %rsi
	movq	%rsi, 232(%rsp)
	andl	$-1073741825, 64(%rax)
	jmp	.L542
	.p2align 4,,10
	.p2align 3
.L552:
	testq	%rax, %rax
	jns	.L563
	movq	(%r12), %rax
	movq	%rax, 224(%rsp)
	movq	8(%rax), %rbx
	movq	%rbp, %r12
	jmp	.L553
	.p2align 4,,10
	.p2align 3
.L563:
	cmpb	%al, 224(%rsp)
	jne	.L542
	cmpb	$7, 224(%rsp)
	jle	.L564
	movq	(%r12), %rax
	cmpq	%rax, 0(%rbp)
	je	.L532
	cmpb	$9, 224(%rsp)
	je	.L532
	jmp	.L542
	.p2align 4,,10
	.p2align 3
.L564:
	movq	0(%rbp), %rbp
	movq	(%r12), %r12
	cmpq	%r12, %rbp
	je	.L532
	cmpb	$1, 224(%rsp)
	jle	.L565
	cmpb	$4, 224(%rsp)
	jne	.L566
	movq	0(%rbp), %rsi
	movl	%esi, %ecx
	movslq	%esi, %rax
	cmpq	(%r12), %rax
	jne	.L567
	leaq	16(%rbp), %rdx
	cmpb	$19, 8(%rbp)
	je	.L569
	movq	16(%rbp), %rdx
.L569:
	cmpb	$19, 8(%r12)
	jne	.L570
	addq	$16, %r12
.L572:
	leal	-1(%rsi), %eax
	testl	%esi, %esi
	je	.L2218
	movzbl	(%r12), %edi
	cmpb	%dil, (%rdx)
	jne	.L2219
	leal	-2(%rsi), %eax
	jmp	.L571
.L570:
	movq	16(%r12), %r12
	jmp	.L572
	.p2align 4,,10
	.p2align 3
.L573:
	subl	$1, %eax
	movzbl	(%r12), %edi
	cmpb	%dil, (%rdx)
	jne	.L567
.L571:
	addq	$1, %rdx
	addq	$1, %r12
	movl	%eax, %ecx
	cmpl	$-1, %eax
	jne	.L573
	jmp	.L567
.L2218:
	movl	%eax, %ecx
	jmp	.L567
.L2219:
	movl	%eax, %ecx
.L567:
	testl	%ecx, %ecx
	.p2align 4,,5
	js	.L532
	.p2align 4,,5
	jmp	.L542
	.p2align 4,,10
	.p2align 3
.L566:
	movq	ec_@GOTPCREL(%rip), %rax
	movq	%r15, (%rax)
	movq	%r14, 24(%rax)
	movq	232(%rsp), %rdi
	movq	%rdi, 16(%rax)
	movq	%r13, 72(%rax)
	orl	$1073741824, 64(%rax)
	movsbl	%bl, %eax
	cltq
	leaq	(%rax,%rax,4), %rdx
	leaq	(%rax,%rdx,8), %rax
	salq	$4, %rax
	movq	%r12, %rsi
	movq	%rbp, %rdi
	movq	ec_@GOTPCREL(%rip), %rcx
	call	*5104(%rcx,%rax)
	movq	ec_@GOTPCREL(%rip), %rsi
	andl	$-1073741825, 64(%rsi)
	testl	%eax, %eax
	jne	.L532
	jmp	.L542
	.p2align 4,,10
	.p2align 3
.L565:
	movq	ec_@GOTPCREL(%rip), %rax
	movl	68(%rax), %eax
	testb	$32, %al
	je	.L574
	movq	ec_@GOTPCREL(%rip), %rbx
	movq	%r15, (%rbx)
	movq	%r14, 24(%rbx)
	movq	232(%rsp), %rax
	movq	%rax, 16(%rbx)
	movq	%r13, 72(%rbx)
	orl	$1073741824, 64(%rbx)
	call	ec_handle_async@PLT
	andl	$-1073741825, 64(%rbx)
.L574:
	cmpb	$0, 224(%rsp)
	jne	.L575
	jmp	.L576
.L2224:
	movq	%rbx, %r12
.L576:
	leaq	-16(%r15), %rbx
	movq	%rbp, -16(%r15)
	movq	%r12, -8(%r15)
	movq	%rbx, %r15
	movq	ec_@GOTPCREL(%rip), %rax
	cmpq	472(%rax), %rbx
	ja	.L519
	movq	%rbx, (%rax)
	movq	%r14, 24(%rax)
	movq	232(%rsp), %rsi
	movq	%rsi, 16(%rax)
	movq	%r13, 72(%rax)
	orl	$1073741824, 64(%rax)
	call	local_ov@PLT
	testl	%eax, %eax
	je	.L577
	movq	%rbx, 216(%rsp)
	jmp	.L411
	.p2align 4,,10
	.p2align 3
.L577:
	movq	ec_@GOTPCREL(%rip), %rax
	andl	$-1073741825, 64(%rax)
	movq	%rbx, %r15
	jmp	.L519
.L575:
	movq	0(%rbp), %rax
	leaq	16(%r12), %rbx
	cmpq	(%r12), %rax
	jne	.L2221
	addq	$16, %rbp
	movq	(%rax), %rax
	cmpq	$1, %rax
	je	.L2223
	cmpq	$2, %rax
	je	.L2224
	testq	%rax, %rax
	je	.L2222
	leaq	-24(%r15), %rdi
	movq	%rdi, 224(%rsp)
	leaq	-3(%rax,%rax), %rax
	movq	%rax, -24(%r15)
	movq	%rbp, -16(%r15)
	movq	%rbx, -8(%r15)
	movq	%rbx, %r12
	movq	%rdi, %r15
	movq	ec_@GOTPCREL(%rip), %rax
	cmpq	472(%rax), %rdi
	ja	.L519
	movq	%rdi, (%rax)
	movq	%r14, 24(%rax)
	movq	232(%rsp), %rsi
	movq	%rsi, 16(%rax)
	movq	%r13, 72(%rax)
	orl	$1073741824, 64(%rax)
	call	local_ov@PLT
	testl	%eax, %eax
	je	.L579
	movq	224(%rsp), %rax
	movq	%rax, 216(%rsp)
	jmp	.L411
	.p2align 4,,10
	.p2align 3
.L579:
	movq	ec_@GOTPCREL(%rip), %rax
	andl	$-1073741825, 64(%rax)
	movq	%rbx, %r12
	movq	224(%rsp), %r15
	jmp	.L519
.L2222:
	movq	%rbx, %r12
.L532:
	cmpq	%r15, 216(%rsp)
	ja	.L580
	movq	ec_@GOTPCREL(%rip), %rax
	movq	$0, 200(%rax)
	movq	%r13, %rax
	leaq	8(%r13), %r13
	movq	(%rax), %rax
	movq	%r15, 216(%rsp)
	jmp	.L428
	.p2align 4,,10
	.p2align 3
.L580:
	movq	(%r15), %rax
	testb	$1, %al
	je	.L581
	movq	8(%r15), %rdi
	leaq	16(%rdi), %rbp
	movq	%rbp, 8(%r15)
	movq	16(%r15), %rdi
	leaq	16(%rdi), %r12
	movq	%r12, 16(%r15)
	subq	$2, %rax
	cmpq	$1, %rax
	jle	.L582
	movq	%rax, (%r15)
	jmp	.L519
	.p2align 4,,10
	.p2align 3
.L582:
	addq	$8, %r15
	jmp	.L519
	.p2align 4,,10
	.p2align 3
.L581:
	leaq	16(%rax), %rbp
	movq	8(%r15), %rax
	leaq	16(%rax), %r12
	addq	$16, %r15
	jmp	.L519
.L2221:
	movq	%rbx, %r12
.L542:
	movq	ec_@GOTPCREL(%rip), %rax
	movq	$0, 200(%rax)
	movq	248(%rsp), %rax
	movq	%rax, 256(%rsp)
	movq	280(%rsp), %rax
	movq	%rax, 272(%rsp)
	movq	%r14, 240(%rsp)
	movq	232(%rsp), %rax
	movq	%rax, 224(%rsp)
	jmp	.L1440
.L2641:
	movq	224(%rsp), %r15
	movl	$9, %r14d
	jmp	.L583
.L2250:
	movq	224(%rsp), %r15
	movq	264(%rsp), %rbx
	movq	%rbp, 264(%rsp)
	movl	$9, %r14d
	jmp	.L583
.L2267:
	movq	224(%rsp), %r12
	xorl	%r14d, %r14d
.L583:
	movq	8(%rbx), %rax
	cmpb	$-2, %al
	jne	.L584
	cmpq	256(%rsp), %rbx
	jae	.L585
	movq	ec_@GOTPCREL(%rip), %rcx
	movq	8(%rcx), %rax
	leaq	-8(%rax), %rdx
	movq	%rdx, 8(%rcx)
	movq	%rbx, -8(%rax)
	movq	8(%rcx), %rsi
	leaq	-8(%rsi), %rax
	movq	%rax, 8(%rcx)
	movq	8(%rbx), %rdx
	movabsq	$-9223372036854775808, %rax
	andq	%rdx, %rax
	salq	$2, %rdx
	orq	%rdx, %rax
	orq	$1, %rax
	movq	%rax, -8(%rsi)
	movq	456(%rcx), %rax
	cmpq	%rax, 8(%rcx)
	ja	.L585
	movq	%rcx, %rbp
	movq	216(%rsp), %rax
	movq	%rax, (%rcx)
	movq	240(%rsp), %rax
	movq	%rax, 24(%rcx)
	movq	%r15, 16(%rcx)
	movq	%r13, 72(%rcx)
	orl	$1073741824, 64(%rcx)
	call	trail_ov@PLT
	andl	$-1073741825, 64(%rbp)
.L585:
	movq	%r12, (%rbx)
	movq	%r14, 8(%rbx)
	movq	%r15, 232(%rsp)
	jmp	.L586
.L584:
	cmpb	$-3, %al
	jne	.L587
	cmpq	256(%rsp), %rbx
	jae	.L588
	movq	ec_@GOTPCREL(%rip), %rcx
	movq	8(%rcx), %rax
	leaq	-8(%rax), %rdx
	movq	%rdx, 8(%rcx)
	movq	%rbx, -8(%rax)
	movq	8(%rcx), %rsi
	leaq	-8(%rsi), %rax
	movq	%rax, 8(%rcx)
	movq	8(%rbx), %rdx
	movabsq	$-9223372036854775808, %rax
	andq	%rdx, %rax
	salq	$2, %rdx
	orq	%rdx, %rax
	orq	$1, %rax
	movq	%rax, -8(%rsi)
	movq	456(%rcx), %rax
	cmpq	%rax, 8(%rcx)
	ja	.L588
	movq	%rcx, %rbp
	movq	216(%rsp), %rax
	movq	%rax, (%rcx)
	movq	240(%rsp), %rax
	movq	%rax, 24(%rcx)
	movq	%r15, 16(%rcx)
	movq	%r13, 72(%rcx)
	orl	$1073741824, 64(%rcx)
	call	trail_ov@PLT
	andl	$-1073741825, 64(%rbp)
.L588:
	movq	%r12, (%rbx)
	movq	%r14, 8(%rbx)
	leaq	32(%r15), %rax
	movq	%rax, 232(%rsp)
	movq	ec_@GOTPCREL(%rip), %rax
	movq	232(%rsp), %rdi
	cmpq	448(%rax), %rdi
	jb	.L589
	movq	%rax, %rbp
	movq	216(%rsp), %rax
	movq	%rax, 0(%rbp)
	movq	240(%rsp), %rax
	movq	%rax, 24(%rbp)
	movq	%rdi, 16(%rbp)
	movq	%r13, 72(%rbp)
	orl	$1073741824, 64(%rbp)
	call	global_ov@PLT
	andl	$-1073741825, 64(%rbp)
.L589:
	movq	%rbx, (%r15)
	movq	$0, 8(%r15)
	movq	ec_@GOTPCREL(%rip), %rax
	movq	96(%rax), %rax
	testq	%rax, %rax
	je	.L590
	movq	%rax, 16(%r15)
	movq	$0, 24(%r15)
	jmp	.L591
.L590:
	movq	$9, 24(%r15)
	movq	ec_@GOTPCREL(%rip), %rax
	movq	$0, 424(%rax)
.L591:
	movq	ec_@GOTPCREL(%rip), %rax
	movq	%r15, 96(%rax)
	jmp	.L586
.L587:
	movq	%r12, 352(%rsp)
	movq	%r14, 360(%rsp)
	movq	ec_@GOTPCREL(%rip), %rbp
	movq	272(%rsp), %rax
	movq	%rax, 32(%rbp)
	movq	256(%rsp), %rax
	movq	%rax, 40(%rbp)
	movq	216(%rsp), %rax
	movq	%rax, 0(%rbp)
	movq	240(%rsp), %rax
	movq	%rax, 24(%rbp)
	movq	%r15, 16(%rbp)
	movq	%r13, 72(%rbp)
	orl	$1073741824, 64(%rbp)
	leaq	352(%rsp), %rax
	leaq	96(%rbp), %rdx
	movq	%rax, %rsi
	movq	%rbx, %rdi
	call	bind_c@PLT
	movq	16(%rbp), %rsi
	movq	%rsi, 232(%rsp)
	andl	$-1073741825, 64(%rbp)
	cmpl	$1, %eax
	je	.L2226
.L586:
	movq	%r13, %rax
	leaq	8(%r13), %r13
	movq	(%rax), %rax
	movq	256(%rsp), %rdi
	movq	%rdi, 248(%rsp)
	movq	272(%rsp), %rsi
	movq	%rsi, 280(%rsp)
	movq	240(%rsp), %r14
	jmp	.L428
.L592:
	movq	ec_@GOTPCREL(%rip), %rax
	movq	$0, 200(%rax)
	testl	%ebp, %ebp
	jne	.L593
.L594:
	movq	$0, 80(%rax)
	movq	%r13, %rax
	leaq	8(%r13), %r13
	movq	(%rax), %rax
	movq	256(%rsp), %rdi
	movq	%rdi, 248(%rsp)
	movq	272(%rsp), %rsi
	movq	%rsi, 280(%rsp)
	movq	240(%rsp), %r14
	jmp	.L428
.L2482:
	movq	224(%rsp), %rax
	movq	%rax, 232(%rsp)
	jmp	.L595
.L2483:
	movq	224(%rsp), %rax
	movq	%rax, 232(%rsp)
	jmp	.L595
.L2484:
	movq	224(%rsp), %rax
	movq	%rax, 232(%rsp)
	jmp	.L595
.L2485:
	movq	224(%rsp), %rax
	movq	%rax, 232(%rsp)
	jmp	.L595
.L2491:
	movq	224(%rsp), %rax
	movq	%rax, 232(%rsp)
	jmp	.L595
.L2492:
	movq	224(%rsp), %rax
	movq	%rax, 232(%rsp)
	jmp	.L595
.L2493:
	movq	224(%rsp), %rax
	movq	%rax, 232(%rsp)
	jmp	.L595
.L2494:
	movq	224(%rsp), %rax
	movq	%rax, 232(%rsp)
	jmp	.L595
.L2500:
	movq	224(%rsp), %rax
	movq	%rax, 232(%rsp)
	jmp	.L595
.L2501:
	movq	224(%rsp), %rax
	movq	%rax, 232(%rsp)
	jmp	.L595
.L2502:
	movq	224(%rsp), %rax
	movq	%rax, 232(%rsp)
	jmp	.L595
.L2503:
	movq	224(%rsp), %rax
	movq	%rax, 232(%rsp)
	jmp	.L595
.L2509:
	movq	224(%rsp), %rax
	movq	%rax, 232(%rsp)
	jmp	.L595
.L2510:
	movq	224(%rsp), %rax
	movq	%rax, 232(%rsp)
	jmp	.L595
.L2511:
	movq	224(%rsp), %rax
	movq	%rax, 232(%rsp)
	jmp	.L595
.L2512:
	movq	224(%rsp), %rax
	movq	%rax, 232(%rsp)
	jmp	.L595
.L2680:
	movq	224(%rsp), %rax
	movq	%rax, 232(%rsp)
	jmp	.L595
.L2519:
	movq	224(%rsp), %rax
	movq	%rax, 232(%rsp)
	jmp	.L595
.L2520:
	movq	224(%rsp), %rax
	movq	%rax, 232(%rsp)
	jmp	.L595
.L2521:
	movq	224(%rsp), %rax
	movq	%rax, 232(%rsp)
	jmp	.L595
.L2528:
	movq	224(%rsp), %rax
	movq	%rax, 232(%rsp)
	jmp	.L595
.L2529:
	movq	224(%rsp), %rax
	movq	%rax, 232(%rsp)
	jmp	.L595
.L2530:
	movq	224(%rsp), %rax
	movq	%rax, 232(%rsp)
.L595:
	movq	ec_@GOTPCREL(%rip), %rax
	movq	80(%rax), %rax
	testq	%rax, %rax
	je	.L596
	cmpq	%rax, 256(%rsp)
	jbe	.L597
	movq	ec_@GOTPCREL(%rip), %rax
	movq	8(%rax), %rdx
	leaq	-8(%rdx), %rcx
	movq	%rcx, 8(%rax)
	movq	80(%rax), %rcx
	movq	8(%rcx), %rcx
	movq	%rcx, -8(%rdx)
	movq	8(%rax), %rdx
	leaq	-8(%rdx), %rcx
	movq	%rcx, 8(%rax)
	movq	80(%rax), %rcx
	movq	%rcx, -8(%rdx)
	movq	8(%rax), %rdx
	leaq	-8(%rdx), %rcx
	movq	%rcx, 8(%rax)
	movq	$266, -8(%rdx)
	movq	456(%rax), %rdi
	cmpq	%rdi, 8(%rax)
	ja	.L597
	movq	%rax, %rbx
	movq	216(%rsp), %rax
	movq	%rax, (%rbx)
	movq	240(%rsp), %rax
	movq	%rax, 24(%rbx)
	movq	232(%rsp), %rax
	movq	%rax, 16(%rbx)
	movq	%r13, 72(%rbx)
	orl	$1073741824, 64(%rbx)
	call	trail_ov@PLT
	andl	$-1073741825, 64(%rbx)
.L597:
	movq	ec_@GOTPCREL(%rip), %rax
	movq	80(%rax), %rdx
	orq	$512, 8(%rdx)
	movq	$0, 80(%rax)
.L596:
	movq	%r13, %rax
	leaq	8(%r13), %r13
	movq	(%rax), %rax
	movq	256(%rsp), %rsi
	movq	%rsi, 248(%rsp)
	movq	272(%rsp), %rdi
	movq	%rdi, 280(%rsp)
	movq	240(%rsp), %r14
	jmp	.L428
	.p2align 4,,10
	.p2align 3
.L593:
	cmpl	$1, %ebp
	je	.L2227
	movl	%ebp, %eax
	andl	$-8, %eax
	cmpl	$8, %eax
	jne	.L598
	jmp	.L599
.L2389:
	movq	224(%rsp), %rax
	movq	%rax, 232(%rsp)
	movl	$9, %ebp
	jmp	.L599
.L2649:
	movq	224(%rsp), %rax
	movq	%rax, 232(%rsp)
	movl	$9, %ebp
	jmp	.L599
.L2393:
	movq	224(%rsp), %rax
	movq	%rax, 232(%rsp)
	movl	$9, %ebp
	jmp	.L599
.L2650:
	movq	224(%rsp), %rax
	movq	%rax, 232(%rsp)
	movl	$9, %ebp
	jmp	.L599
.L2397:
	movq	224(%rsp), %rax
	movq	%rax, 232(%rsp)
	movl	$9, %ebp
	jmp	.L599
.L2398:
	movq	224(%rsp), %rax
	movq	%rax, 232(%rsp)
	movl	$10, %ebp
	jmp	.L599
.L2403:
	movq	224(%rsp), %rax
	movq	%rax, 232(%rsp)
	movl	$9, %ebp
	jmp	.L599
.L2404:
	movq	224(%rsp), %rax
	movq	%rax, 232(%rsp)
	movl	$10, %ebp
	jmp	.L599
.L2409:
	movq	224(%rsp), %rax
	movq	%rax, 232(%rsp)
	movl	$9, %ebp
	jmp	.L599
.L2651:
	movq	224(%rsp), %rax
	movq	%rax, 232(%rsp)
	movl	$9, %ebp
	jmp	.L599
.L2411:
	movq	224(%rsp), %rax
	movq	%rax, 232(%rsp)
	movl	$10, %ebp
	jmp	.L599
.L2652:
	movq	224(%rsp), %rax
	movq	%rax, 232(%rsp)
	movl	$10, %ebp
	jmp	.L599
.L2418:
	movq	224(%rsp), %rax
	movq	%rax, 232(%rsp)
	movl	$9, %ebp
	jmp	.L599
.L2653:
	movq	224(%rsp), %rax
	movq	%rax, 232(%rsp)
	movl	$9, %ebp
	jmp	.L599
.L2420:
	movq	224(%rsp), %rax
	movq	%rax, 232(%rsp)
	movl	$10, %ebp
	jmp	.L599
.L2654:
	movq	224(%rsp), %rax
	movq	%rax, 232(%rsp)
	movl	$10, %ebp
	jmp	.L599
.L2426:
	movq	224(%rsp), %rax
	movq	%rax, 232(%rsp)
	movl	$9, %ebp
	jmp	.L599
.L2655:
	movq	224(%rsp), %rax
	movq	%rax, 232(%rsp)
	movl	$9, %ebp
	jmp	.L599
.L2428:
	movq	224(%rsp), %rax
	movq	%rax, 232(%rsp)
	movl	$10, %ebp
	jmp	.L599
.L2656:
	movq	224(%rsp), %rax
	movq	%rax, 232(%rsp)
	movl	$10, %ebp
	jmp	.L599
.L2434:
	movq	224(%rsp), %rax
	movq	%rax, 232(%rsp)
	movl	$9, %ebp
	jmp	.L599
.L2657:
	movq	224(%rsp), %rax
	movq	%rax, 232(%rsp)
	movl	$9, %ebp
	jmp	.L599
.L2436:
	movq	224(%rsp), %rax
	movq	%rax, 232(%rsp)
	movl	$10, %ebp
	jmp	.L599
.L2658:
	movq	224(%rsp), %rax
	movq	%rax, 232(%rsp)
	movl	$10, %ebp
	jmp	.L599
.L2442:
	movq	224(%rsp), %rax
	movq	%rax, 232(%rsp)
	movl	$9, %ebp
	jmp	.L599
.L2659:
	movq	224(%rsp), %rax
	movq	%rax, 232(%rsp)
	movl	$9, %ebp
	jmp	.L599
.L2444:
	movq	224(%rsp), %rax
	movq	%rax, 232(%rsp)
	movl	$10, %ebp
	jmp	.L599
.L2660:
	movq	224(%rsp), %rax
	movq	%rax, 232(%rsp)
	movl	$10, %ebp
	jmp	.L599
.L2450:
	movq	224(%rsp), %rax
	movq	%rax, 232(%rsp)
	movl	$9, %ebp
	jmp	.L599
.L2661:
	movq	224(%rsp), %rax
	movq	%rax, 232(%rsp)
	movl	$9, %ebp
	jmp	.L599
.L2452:
	movq	224(%rsp), %rax
	movq	%rax, 232(%rsp)
	movl	$10, %ebp
	jmp	.L599
.L2662:
	movq	224(%rsp), %rax
	movq	%rax, 232(%rsp)
	movl	$10, %ebp
	jmp	.L599
.L2458:
	movq	224(%rsp), %rax
	movq	%rax, 232(%rsp)
	movl	$9, %ebp
	jmp	.L599
.L2663:
	movq	224(%rsp), %rax
	movq	%rax, 232(%rsp)
	movl	$9, %ebp
	jmp	.L599
.L2460:
	movq	224(%rsp), %rax
	movq	%rax, 232(%rsp)
	movl	$10, %ebp
	jmp	.L599
.L2664:
	movq	224(%rsp), %rax
	movq	%rax, 232(%rsp)
	movl	$10, %ebp
	jmp	.L599
.L2464:
	movq	224(%rsp), %rax
	movq	%rax, 232(%rsp)
	movl	$9, %ebp
	jmp	.L599
.L2665:
	movq	224(%rsp), %rax
	movq	%rax, 232(%rsp)
	movl	$9, %ebp
	jmp	.L599
.L2466:
	movq	224(%rsp), %rax
	movq	%rax, 232(%rsp)
	movl	$10, %ebp
	jmp	.L599
.L2666:
	movq	224(%rsp), %rax
	movq	%rax, 232(%rsp)
	movl	$10, %ebp
	jmp	.L599
.L2470:
	movq	224(%rsp), %rax
	movq	%rax, 232(%rsp)
	movl	$9, %ebp
	jmp	.L599
.L2667:
	movq	224(%rsp), %rax
	movq	%rax, 232(%rsp)
	movl	$9, %ebp
	jmp	.L599
.L2472:
	movq	224(%rsp), %rax
	movq	%rax, 232(%rsp)
	movl	$10, %ebp
	jmp	.L599
.L2668:
	movq	224(%rsp), %rax
	movq	%rax, 232(%rsp)
	movl	$10, %ebp
	jmp	.L599
.L2476:
	movq	224(%rsp), %rax
	movq	%rax, 232(%rsp)
	movl	$9, %ebp
	jmp	.L599
.L2669:
	movq	224(%rsp), %rax
	movq	%rax, 232(%rsp)
	movl	$9, %ebp
	jmp	.L599
.L2478:
	movq	224(%rsp), %rax
	movq	%rax, 232(%rsp)
	movl	$9, %ebp
	jmp	.L599
.L2670:
	movq	224(%rsp), %rax
	movq	%rax, 232(%rsp)
	movl	$9, %ebp
	jmp	.L599
.L2480:
	movq	224(%rsp), %rax
	movq	%rax, 232(%rsp)
	movl	$10, %ebp
	jmp	.L599
.L2671:
	movq	224(%rsp), %rax
	movq	%rax, 232(%rsp)
	movl	$10, %ebp
	jmp	.L599
.L2487:
	movq	224(%rsp), %rax
	movq	%rax, 232(%rsp)
	movl	$9, %ebp
	jmp	.L599
.L2672:
	movq	224(%rsp), %rax
	movq	%rax, 232(%rsp)
	movl	$9, %ebp
	jmp	.L599
.L2489:
	movq	224(%rsp), %rax
	movq	%rax, 232(%rsp)
	movl	$10, %ebp
	jmp	.L599
.L2673:
	movq	224(%rsp), %rax
	movq	%rax, 232(%rsp)
	movl	$10, %ebp
	jmp	.L599
.L2496:
	movq	224(%rsp), %rax
	movq	%rax, 232(%rsp)
	movl	$9, %ebp
	jmp	.L599
.L2674:
	movq	224(%rsp), %rax
	movq	%rax, 232(%rsp)
	movl	$9, %ebp
	jmp	.L599
.L2498:
	movq	224(%rsp), %rax
	movq	%rax, 232(%rsp)
	movl	$10, %ebp
	jmp	.L599
.L2675:
	movq	224(%rsp), %rax
	movq	%rax, 232(%rsp)
	movl	$10, %ebp
	jmp	.L599
.L2505:
	movq	224(%rsp), %rax
	movq	%rax, 232(%rsp)
	movl	$9, %ebp
	jmp	.L599
.L2676:
	movq	224(%rsp), %rax
	movq	%rax, 232(%rsp)
	movl	$9, %ebp
	jmp	.L599
.L2507:
	movq	224(%rsp), %rax
	movq	%rax, 232(%rsp)
	movl	$10, %ebp
	jmp	.L599
.L2677:
	movq	224(%rsp), %rax
	movq	%rax, 232(%rsp)
	movl	$10, %ebp
	jmp	.L599
.L2514:
	movq	224(%rsp), %rax
	movq	%rax, 232(%rsp)
	movl	$9, %ebp
	jmp	.L599
.L2678:
	movq	224(%rsp), %rax
	movq	%rax, 232(%rsp)
	movl	$9, %ebp
	jmp	.L599
.L2516:
	movq	224(%rsp), %rax
	movq	%rax, 232(%rsp)
	movl	$10, %ebp
	jmp	.L599
.L2679:
	movq	224(%rsp), %rax
	movq	%rax, 232(%rsp)
	movl	$10, %ebp
	jmp	.L599
.L2523:
	movq	224(%rsp), %rax
	movq	%rax, 232(%rsp)
	movl	$9, %ebp
	jmp	.L599
.L2681:
	movq	224(%rsp), %rax
	movq	%rax, 232(%rsp)
	movl	$9, %ebp
	jmp	.L599
.L2525:
	movq	224(%rsp), %rax
	movq	%rax, 232(%rsp)
	movl	$10, %ebp
	jmp	.L599
.L2682:
	movq	224(%rsp), %rax
	movq	%rax, 232(%rsp)
	movl	$10, %ebp
	jmp	.L599
.L2534:
	movq	224(%rsp), %rax
	movq	%rax, 232(%rsp)
	movl	$10, %ebp
	jmp	.L599
.L2542:
	movq	224(%rsp), %rax
	movq	%rax, 232(%rsp)
	movl	$9, %ebp
	jmp	.L599
.L2700:
	movq	224(%rsp), %rax
	movq	%rax, 232(%rsp)
	movl	$10, %ebp
.L599:
	movq	ec_@GOTPCREL(%rip), %rax
	movq	5024(%rax), %rax
	testb	$1, 33(%rax)
	jne	.L600
	movq	ec_@GOTPCREL(%rip), %rax
	movq	$0, 104(%rax)
	movl	$-4, %ebp
	jmp	.L601
.L600:
	movq	296(%rsp), %rax
	movq	40(%rax), %rax
	movq	%rax, 288(%rsp)
	movq	ec_@GOTPCREL(%rip), %rax
	cmpq	$0, 80(%rax)
	jne	.L602
	movq	232(%rsp), %rsi
	movq	%rsi, 80(%rax)
	leaq	80(%rsi), %rcx
	movq	88(%rax), %rdx
	movq	%rdx, (%rsi)
	movq	%rsi, 88(%rax)
	movq	296(%rsp), %rax
	movl	48(%rax), %eax
	andl	$2097152, %eax
	cmpl	$1, %eax
	sbbq	%rax, %rax
	xorb	%al, %al
	addq	$271, %rax
	movq	%rax, 8(%rsi)
	movq	296(%rsp), %rdi
	movq	%rdi, 16(%rsi)
	movq	$0, 24(%rsi)
	movq	ec_@GOTPCREL(%rip), %rax
	movq	48(%rax), %rax
	movq	-8(%rax), %rax
	movq	8(%rax), %rax
	movq	%rax, 32(%rsi)
	movzbl	52(%rdi), %eax
	movl	%eax, %edx
	andl	$15, %edx
	shrb	$4, %al
	movzbl	%al, %eax
	cmpl	%edx, %eax
	cmovg	%edx, %eax
	sall	$24, %eax
	sall	$20, %edx
	orl	%edx, %eax
	cltq
	movabsq	$-9223372036854775553, %rdx
	orq	%rdx, %rax
	movq	%rax, 40(%rsi)
	movq	$1, 56(%rsi)
	movq	%rcx, 48(%rsi)
	movq	$11, 72(%rsi)
	movq	296(%rsp), %rax
	movq	24(%rax), %rax
	movq	%rax, 64(%rsi)
	movq	288(%rsp), %rax
	movq	(%rax), %rax
	movq	%rax, 224(%rsp)
	leaq	1(%rax), %rcx
	movq	288(%rsp), %rdi
	movq	%rdi, 80(%rsi)
	movq	$11, 88(%rsi)
	movq	-8(%r13), %rsi
	movq	%rcx, %rax
	negq	%rax
	leaq	0(,%rax,8), %rdx
	movq	232(%rsp), %rax
	addq	$96, %rax
	movq	%rax, 232(%rsp)
	movabsq	$-9223372036854775553, %rdi
.L611:
	movq	%rsi, %rax
	andl	$3, %eax
	cmpq	$1, %rax
	je	.L605
	cmpq	$1, %rax
	jg	.L606
	testq	%rax, %rax
	je	.L607
	.p2align 4,,4
	jmp	.L604
.L606:
	cmpq	$2, %rax
	.p2align 4,,4
	je	.L608
	cmpq	$3, %rax
	.p2align 4,,3
	je	.L609
	.p2align 4,,3
	jmp	.L604
.L607:
	movq	0(%r13,%rdx), %rax
	movq	(%rax), %r8
	movq	8(%rax), %r9
	movq	232(%rsp), %rax
	movq	%r8, (%rax)
	movq	%r9, 8(%rax)
	jmp	.L604
.L605:
	movq	0(%r13,%rdx), %rax
	movq	232(%rsp), %rbx
	movq	%rbx, (%rax)
	movq	0(%r13,%rdx), %rax
	movq	%rdi, 8(%rax)
	movq	%rbx, %rax
	movq	%rbx, (%rax)
	movq	%rdi, 8(%rbx)
	jmp	.L604
.L608:
	movq	0(%r13,%rdx), %rax
	movq	232(%rsp), %rbx
	movq	%rax, (%rbx)
	movq	$10, 8(%rbx)
	jmp	.L604
.L609:
	movq	0(%r13,%rdx), %rax
	movq	232(%rsp), %rbx
	movq	%rax, (%rbx)
	movq	$267, 8(%rbx)
.L604:
	addq	$16, 232(%rsp)
	sarq	$2, %rsi
	subq	$1, %rcx
	addq	$8, %rdx
	cmpq	$1, %rcx
	ja	.L611
	jmp	.L610
.L602:
	movq	288(%rsp), %rax
	movq	(%rax), %rax
	leaq	1(%rax), %rsi
	movq	-8(%r13), %rcx
	cmpq	$1, %rsi
	jbe	.L610
	testq	%rcx, %rcx
	je	.L610
	negq	%rax
	leaq	0(%r13,%rax,8), %rdi
	xorl	%edx, %edx
	movabsq	$-9223372036854775553, %r8
.L614:
	movq	%rcx, %rax
	andl	$3, %eax
	cmpq	$1, %rax
	jne	.L612
	movq	-8(%rdi,%rdx), %rax
	movq	232(%rsp), %rbx
	movq	%rbx, (%rax)
	movq	-8(%rdi,%rdx), %rax
	movq	%r8, 8(%rax)
	movq	%rbx, %rax
	movq	%rbx, (%rax)
	movq	%r8, 8(%rbx)
	addq	$16, %rax
	movq	%rax, 232(%rsp)
.L612:
	sarq	$2, %rcx
	subq	$1, %rsi
	addq	$8, %rdx
	testq	%rcx, %rcx
	je	.L610
	cmpq	$1, %rsi
	ja	.L614
.L610:
	movq	ec_@GOTPCREL(%rip), %rax
	movq	232(%rsp), %rsi
	cmpq	448(%rax), %rsi
	jb	.L615
	movq	%rax, %rbx
	movq	216(%rsp), %rax
	movq	%rax, (%rbx)
	movq	240(%rsp), %rax
	movq	%rax, 24(%rbx)
	movq	%rsi, 16(%rbx)
	movq	%r13, 72(%rbx)
	orl	$1073741824, 64(%rbx)
	call	global_ov@PLT
	andl	$-1073741825, 64(%rbx)
.L615:
	testb	$7, %bpl
	je	.L500
	movq	ec_@GOTPCREL(%rip), %rax
	movq	272(%rsp), %rdi
	movq	%rdi, 32(%rax)
	movq	256(%rsp), %rsi
	movq	%rsi, 40(%rax)
	movq	216(%rsp), %rdi
	movq	%rdi, (%rax)
	movq	240(%rsp), %rsi
	movq	%rsi, 24(%rax)
	movq	232(%rsp), %rdi
	movq	%rdi, 16(%rax)
	movq	%r13, 72(%rax)
	orl	$1073741824, 64(%rax)
	testb	$1, %bpl
	je	.L616
	movq	80(%rax), %rsi
	movq	48(%rsi), %rdx
	leaq	16(%rdx), %rax
	cmpq	$0, 24(%rdx)
	jns	.L617
	cmpq	16(%rdx), %rax
	je	.L617
.L618:
	movq	(%rax), %rax
	cmpq	$0, 8(%rax)
	jns	.L617
	cmpq	%rax, (%rax)
	jne	.L618
.L617:
	movl	$1, %ecx
	movq	%rsi, %rdx
	movl	$1, %esi
	movq	%rax, %rdi
	call	insert_suspension@PLT
	cltq
	testq	%rax, %rax
	js	.L619
.L616:
	testb	$2, %bpl
	je	.L620
	movq	ec_@GOTPCREL(%rip), %rax
	movq	80(%rax), %rsi
	movq	48(%rsi), %rdx
	leaq	32(%rdx), %rax
	cmpq	$0, 40(%rdx)
	jns	.L621
	cmpq	32(%rdx), %rax
	je	.L621
.L622:
	movq	(%rax), %rax
	cmpq	$0, 8(%rax)
	jns	.L621
	cmpq	%rax, (%rax)
	jne	.L622
.L621:
	movl	$1, %ecx
	movq	%rsi, %rdx
	movl	$1, %esi
	movq	%rax, %rdi
	call	insert_suspension@PLT
	cltq
	testq	%rax, %rax
	js	.L619
.L620:
	andl	$4, %ebp
	je	.L623
	movq	ec_@GOTPCREL(%rip), %rax
	movq	80(%rax), %rsi
	movq	48(%rsi), %rdx
	leaq	48(%rdx), %rax
	cmpq	$0, 56(%rdx)
	jns	.L624
	cmpq	48(%rdx), %rax
	je	.L624
.L625:
	movq	(%rax), %rax
	cmpq	$0, 8(%rax)
	jns	.L624
	cmpq	%rax, (%rax)
	jne	.L625
.L624:
	movl	$1, %ecx
	movq	%rsi, %rdx
	movl	$1, %esi
	movq	%rax, %rdi
	call	insert_suspension@PLT
	cltq
	testq	%rax, %rax
	js	.L619
.L623:
	movq	ec_@GOTPCREL(%rip), %rax
	movq	16(%rax), %rsi
	movq	%rsi, 232(%rsp)
	andl	$-1073741825, 64(%rax)
	jmp	.L626
.L2216:
	movq	%r14, 232(%rsp)
	movq	%r15, 216(%rsp)
	movl	$24, %ebp
.L500:
	movq	ec_@GOTPCREL(%rip), %rax
	movq	104(%rax), %r12
	movq	272(%rsp), %rdi
	movq	%rdi, 32(%rax)
	movq	256(%rsp), %rsi
	movq	%rsi, 40(%rax)
	movq	216(%rsp), %rdi
	movq	%rdi, (%rax)
	movq	240(%rsp), %rsi
	movq	%rsi, 24(%rax)
	movq	232(%rsp), %rdi
	movq	%rdi, 16(%rax)
	movq	%r13, 72(%rax)
	orl	$1073741824, 64(%rax)
	testq	%r12, %r12
	je	.L627
	movq	%rax, %rbx
.L633:
	movq	(%r12), %rax
	cmpq	$0, 8(%rax)
	jns	.L628
	cmpq	(%rax), %rax
	je	.L628
.L629:
	movq	(%rax), %rax
	cmpq	$0, 8(%rax)
	jns	.L628
	cmpq	%rax, (%rax)
	jne	.L629
.L628:
	movl	%ebp, %edx
	andl	$16, %edx
	cmpl	$1, %edx
	sbbl	%esi, %esi
	andl	$-2, %esi
	addl	$3, %esi
	movl	$1, %ecx
	movq	80(%rbx), %rdx
	movq	%rax, %rdi
	call	insert_suspension@PLT
	cltq
	testq	%rax, %rax
	jns	.L631
.L619:
	movq	ec_@GOTPCREL(%rip), %rdx
	movq	16(%rdx), %rsi
	movq	%rsi, 248(%rsp)
	andl	$-1073741825, 64(%rdx)
	movl	%eax, %r14d
	negl	%r14d
	movq	80(%rdx), %rax
	movq	48(%rax), %rcx
	movq	56(%rax), %rbx
	movq	%rcx, 352(%rsp)
	movq	%rbx, 360(%rsp)
	movq	$0, 80(%rdx)
	jmp	.L632
	.p2align 4,,10
	.p2align 3
.L631:
	cmpb	$0, 24(%r12)
	jne	.L627
	movq	16(%r12), %r12
	testq	%r12, %r12
	jne	.L633
.L627:
	movq	ec_@GOTPCREL(%rip), %rax
	movq	16(%rax), %rdi
	movq	%rdi, 232(%rsp)
	andl	$-1073741825, 64(%rax)
	movq	$0, 104(%rax)
.L626:
	movq	ec_@GOTPCREL(%rip), %rax
	movq	248(%rax), %rax
	testq	%rax, %rax
	je	.L634
	testq	$768, 8(%rax)
	jne	.L634
	movq	ec_@GOTPCREL(%rip), %rax
	cmpq	$0, 336(%rax)
	je	.L634
	movq	80(%rax), %rdx
	cmpq	$0, 24(%rdx)
	jne	.L634
	movq	272(%rax), %rcx
	movq	%rcx, 24(%rdx)
	movq	272(%rax), %rcx
	leaq	1(%rcx), %rdx
	movq	%rdx, 272(%rax)
	movq	248(%rax), %rax
	testq	%rax, %rax
	je	.L634
	testq	$768, 8(%rax)
	jne	.L634
	movq	ec_@GOTPCREL(%rip), %rdx
	testb	$-128, 336(%rdx)
	je	.L634
	movq	376(%rdx), %rsi
	andl	$196608, %esi
	movq	296(%rsp), %rdi
	movl	48(%rdi), %edx
	notq	%rdx
	testq	%rdx, %rsi
	jne	.L634
	movq	48(%rax), %rax
	addq	$1, %rax
	movq	ec_@GOTPCREL(%rip), %rdx
	cmpq	%rax, 360(%rdx)
	jg	.L634
	cmpq	368(%rdx), %rax
	jg	.L634
	cmpq	344(%rdx), %rcx
	jl	.L634
	cmpq	352(%rdx), %rcx
	jg	.L634
	cmpq	$0, 304(%rdx)
	jne	.L635
	movq	%rcx, 304(%rdx)
.L635:
	movq	ec_@GOTPCREL(%rip), %rax
	movq	80(%rax), %rdx
	movq	56(%rdx), %rcx
	movq	48(%rdx), %rdx
	movq	%rdx, 352(%rsp)
	movq	%rcx, 360(%rsp)
	movq	$0, 80(%rax)
	movq	232(%rsp), %rax
	movq	%rax, 248(%rsp)
	movl	$249, %r14d
	jmp	.L632
	.p2align 4,,10
	.p2align 3
.L634:
	movq	ec_@GOTPCREL(%rip), %rax
	movq	$0, 80(%rax)
	movq	%r13, %rax
	leaq	8(%r13), %r13
	movq	(%rax), %rax
	movq	256(%rsp), %rsi
	movq	%rsi, 248(%rsp)
	movq	272(%rsp), %rsi
	movq	%rsi, 280(%rsp)
	movq	240(%rsp), %r14
	jmp	.L428
.L598:
	cmpl	$2, %ebp
	jne	.L636
	movq	ec_@GOTPCREL(%rip), %rax
	movq	$0, 80(%rax)
	movq	do_exit_block_code_@GOTPCREL(%rip), %rax
	movq	(%rax), %rax
	leaq	8(%rax), %r13
	movq	(%rax), %rax
	movq	256(%rsp), %rdi
	movq	%rdi, 248(%rsp)
	movq	272(%rsp), %rsi
	movq	%rsi, 280(%rsp)
	movq	240(%rsp), %r14
	jmp	.L428
.L636:
	testl	%ebp, %ebp
	movl	$-212, %eax
	cmovg	%eax, %ebp
	jmp	.L601
.L2391:
	movq	224(%rsp), %rax
	movq	%rax, 232(%rsp)
	movl	$-25, %ebp
	jmp	.L601
.L2395:
	movq	224(%rsp), %rax
	movq	%rax, 232(%rsp)
	movl	$-25, %ebp
	jmp	.L601
.L2396:
	movq	224(%rsp), %rax
	movq	%rax, 232(%rsp)
	movl	$-20, %ebp
	jmp	.L601
.L2399:
	movq	224(%rsp), %rax
	movq	%rax, 232(%rsp)
	movl	$-25, %ebp
	jmp	.L601
.L2405:
	movq	224(%rsp), %rax
	movq	%rax, 232(%rsp)
	movl	$-25, %ebp
	jmp	.L601
.L2413:
	movq	224(%rsp), %rax
	movq	%rax, 232(%rsp)
	movl	$-25, %ebp
	jmp	.L601
.L2432:
	movq	224(%rsp), %rax
	movq	%rax, 232(%rsp)
	movl	$-20, %ebp
	jmp	.L601
.L2433:
	movq	224(%rsp), %rax
	movq	%rax, 232(%rsp)
	movl	$-25, %ebp
	jmp	.L601
.L2440:
	movq	224(%rsp), %rax
	movq	%rax, 232(%rsp)
	movl	$-20, %ebp
	jmp	.L601
.L2448:
	movq	224(%rsp), %rax
	movq	%rax, 232(%rsp)
	movl	$-20, %ebp
	jmp	.L601
.L2449:
	movq	224(%rsp), %rax
	movq	%rax, 232(%rsp)
	movl	$-25, %ebp
	jmp	.L601
.L2456:
	movq	224(%rsp), %rax
	movq	%rax, 232(%rsp)
	movl	$-20, %ebp
	jmp	.L601
.L2535:
	movq	224(%rsp), %rax
	movq	%rax, 232(%rsp)
	movl	$-6, %ebp
	jmp	.L601
.L2537:
	movq	224(%rsp), %rax
	movq	%rax, 232(%rsp)
	movl	$-6, %ebp
	jmp	.L601
.L2538:
	movq	224(%rsp), %rax
	movq	%rax, 232(%rsp)
	movl	$-6, %ebp
	jmp	.L601
.L2539:
	movq	224(%rsp), %rax
	movq	%rax, 232(%rsp)
	movl	$-5, %ebp
	jmp	.L601
.L2540:
	movq	224(%rsp), %rax
	movq	%rax, 232(%rsp)
	movl	$-24, %ebp
	jmp	.L601
.L2541:
	movq	224(%rsp), %rax
	movq	%rax, 232(%rsp)
	movl	$-6, %ebp
	jmp	.L601
.L2543:
	movq	224(%rsp), %rax
	movq	%rax, 232(%rsp)
	movl	$-6, %ebp
.L601:
	movq	ec_@GOTPCREL(%rip), %rax
	movq	80(%rax), %rax
	testq	%rax, %rax
	je	.L637
	cmpq	%rax, 256(%rsp)
	jbe	.L638
	movq	ec_@GOTPCREL(%rip), %rax
	movq	8(%rax), %rcx
	leaq	-8(%rcx), %rdx
	movq	%rdx, 8(%rax)
	movq	80(%rax), %rdx
	movq	8(%rdx), %rdx
	movq	%rdx, -8(%rcx)
	movq	8(%rax), %rcx
	leaq	-8(%rcx), %rdx
	movq	%rdx, 8(%rax)
	movq	80(%rax), %rdx
	movq	%rdx, -8(%rcx)
	movq	8(%rax), %rdx
	leaq	-8(%rdx), %rcx
	movq	%rcx, 8(%rax)
	movq	$266, -8(%rdx)
	movq	456(%rax), %rdi
	cmpq	%rdi, 8(%rax)
	ja	.L638
	movq	%rax, %rbx
	movq	216(%rsp), %rax
	movq	%rax, (%rbx)
	movq	240(%rsp), %rax
	movq	%rax, 24(%rbx)
	movq	232(%rsp), %rax
	movq	%rax, 16(%rbx)
	movq	%r13, 72(%rbx)
	orl	$1073741824, 64(%rbx)
	call	trail_ov@PLT
	andl	$-1073741825, 64(%rbx)
.L638:
	movq	ec_@GOTPCREL(%rip), %rax
	movq	80(%rax), %rdx
	orq	$512, 8(%rdx)
	movq	$0, 80(%rax)
.L637:
	movl	%ebp, %r14d
	negl	%r14d
	movq	296(%rsp), %rax
	testb	$64, 48(%rax)
	je	.L639
	leaq	.LC0(%rip), %rsi
	leaq	.LC1(%rip), %rdi
	call	ec_panic@PLT
.L639:
	movq	error_handler_@GOTPCREL(%rip), %rax
	movq	(%rax), %rax
	movslq	%r14d, %rdx
	movq	(%rax,%rdx,8), %rdx
	testq	%rdx, %rdx
	jne	.L640
	movq	(%rax), %rdx
.L640:
	movq	40(%rdx), %rax
	movq	ec_@GOTPCREL(%rip), %rcx
	cmpq	14360(%rcx), %rax
	jne	.L641
	movq	14312(%rcx), %rsi
	cmpq	%rsi, 32(%rdx)
	jne	.L641
	movq	%r13, %rax
	leaq	8(%r13), %r13
	movq	(%rax), %rax
	movq	256(%rsp), %rdi
	movq	%rdi, 248(%rsp)
	movq	272(%rsp), %rsi
	movq	%rsi, 280(%rsp)
	movq	240(%rsp), %r14
	jmp	.L428
	.p2align 4,,10
	.p2align 3
.L641:
	movq	ec_@GOTPCREL(%rip), %rcx
	cmpq	14304(%rcx), %rax
	jne	.L642
	movq	14312(%rcx), %rax
	cmpq	%rax, 32(%rdx)
	je	.L2231
.L642:
	movq	296(%rsp), %rax
	movq	40(%rax), %rax
	movq	%rax, 288(%rsp)
	cmpq	$0, (%rax)
	jle	.L643
	movq	$1, 360(%rsp)
	movq	232(%rsp), %rax
	movq	%rax, 352(%rsp)
	movq	288(%rsp), %rax
	movq	(%rax), %rax
	movq	%rax, 224(%rsp)
	leaq	1(%rax), %rcx
	movq	232(%rsp), %rax
	movq	288(%rsp), %rsi
	movq	%rsi, (%rax)
	addq	$16, %rax
	movq	%rax, 248(%rsp)
	movq	232(%rsp), %rax
	movq	$11, 8(%rax)
	movq	-8(%r13), %rsi
	movq	%rcx, %rax
	negq	%rax
	leaq	0(,%rax,8), %rdx
	movabsq	$-9223372036854775553, %rdi
.L650:
	movq	%rsi, %rax
	andl	$3, %eax
	cmpq	$1, %rax
	je	.L645
	cmpq	$1, %rax
	jg	.L646
	testq	%rax, %rax
	je	.L647
	.p2align 4,,4
	jmp	.L644
	.p2align 4,,10
	.p2align 3
.L646:
	cmpq	$2, %rax
	je	.L648
	cmpq	$3, %rax
	.p2align 4,,3
	je	.L649
	.p2align 4,,3
	jmp	.L644
.L647:
	movq	0(%r13,%rdx), %rax
	movq	(%rax), %r8
	movq	8(%rax), %r9
	movq	248(%rsp), %rax
	movq	%r8, (%rax)
	movq	%r9, 8(%rax)
	jmp	.L644
.L645:
	movq	0(%r13,%rdx), %rax
	movq	248(%rsp), %rbx
	movq	%rbx, (%rax)
	movq	0(%r13,%rdx), %rax
	movq	%rdi, 8(%rax)
	movq	%rbx, %rax
	movq	%rbx, (%rax)
	movq	%rdi, 8(%rbx)
	jmp	.L644
.L648:
	movq	0(%r13,%rdx), %rax
	movq	248(%rsp), %rbx
	movq	%rax, (%rbx)
	movq	$10, 8(%rbx)
	jmp	.L644
.L649:
	movq	0(%r13,%rdx), %rax
	movq	248(%rsp), %rbx
	movq	%rax, (%rbx)
	movq	$267, 8(%rbx)
.L644:
	addq	$16, 248(%rsp)
	sarq	$2, %rsi
	subq	$1, %rcx
	addq	$8, %rdx
	cmpq	$1, %rcx
	ja	.L650
	jmp	.L632
.L643:
	movq	$11, 360(%rsp)
	movq	288(%rsp), %rax
	movq	%rax, 352(%rsp)
	movq	232(%rsp), %rax
	movq	%rax, 248(%rsp)
.L632:
	movq	216(%rsp), %rax
	subq	$8, %rax
	movq	%rax, 280(%rsp)
	movq	216(%rsp), %rax
	movq	%r13, -8(%rax)
	movq	ec_@GOTPCREL(%rip), %rax
	movq	48(%rax), %rbx
	movq	280(%rsp), %rsi
	movq	%rsi, (%rbx)
	movq	248(%rsp), %rdi
	movq	%rdi, 8(%rbx)
	movq	8(%rax), %rdx
	movq	%rdx, 16(%rbx)
	movq	240(%rsp), %rsi
	movq	%rsi, 24(%rbx)
	movq	88(%rax), %rdx
	movq	%rdx, 32(%rbx)
	movq	272(%rsp), %rdi
	movq	%rdi, 40(%rbx)
	movq	256(%rsp), %rsi
	movq	%rsi, 48(%rbx)
	movq	248(%rsp), %rsi
	leaq	16(%rsi), %rdi
	movq	%rdi, 232(%rsp)
	movq	$9, 8(%rsi)
	movq	232(%rsp), %rsi
	cmpq	448(%rax), %rsi
	jb	.L651
	movq	%rax, %rbp
	movq	280(%rsp), %rax
	movq	%rax, 0(%rbp)
	movq	240(%rsp), %rax
	movq	%rax, 24(%rbp)
	movq	%rsi, 16(%rbp)
	movq	%r13, 72(%rbp)
	orl	$1073741824, 64(%rbp)
	call	global_ov@PLT
	andl	$-1073741825, 64(%rbp)
.L651:
	movl	308(%rsp), %eax
	movl	%eax, 56(%rbx)
	movq	ec_@GOTPCREL(%rip), %rax
	movq	80(%rax), %rdx
	movq	%rdx, 64(%rbx)
	movq	96(%rax), %rdx
	movq	%rdx, 72(%rbx)
	movq	$0, 96(%rax)
	movl	128(%rax), %edx
	movl	%edx, 88(%rbx)
	cmpl	$1, 128(%rax)
	je	.L652
	movq	248(%rsp), %rdi
	cmpq	136(%rax), %rdi
	jbe	.L653
	movq	8(%rax), %rdx
	leaq	-8(%rdx), %rcx
	movq	%rcx, 8(%rax)
	movq	136(%rax), %rcx
	movq	%rcx, -8(%rdx)
	movq	8(%rax), %rdx
	leaq	-8(%rdx), %rcx
	movq	%rcx, 8(%rax)
	leaq	136(%rax), %rcx
	movq	%rcx, -8(%rdx)
	movq	8(%rax), %rdx
	leaq	-8(%rdx), %rcx
	movq	%rcx, 8(%rax)
	movq	$6, -8(%rdx)
	movq	456(%rax), %rdi
	cmpq	%rdi, 8(%rax)
	ja	.L654
	movq	%rax, %rbp
	movq	280(%rsp), %rax
	movq	%rax, 0(%rbp)
	movq	240(%rsp), %rax
	movq	%rax, 24(%rbp)
	movq	232(%rsp), %rax
	movq	%rax, 16(%rbp)
	movq	%r13, 72(%rbp)
	orl	$1073741824, 64(%rbp)
	call	trail_ov@PLT
	andl	$-1073741825, 64(%rbp)
.L654:
	movq	ec_@GOTPCREL(%rip), %rax
	movq	248(%rsp), %rsi
	movq	%rsi, 136(%rax)
	movq	8(%rax), %rdx
	leaq	-8(%rdx), %rcx
	movq	%rcx, 8(%rax)
	movq	128(%rax), %rcx
	movq	%rcx, -8(%rdx)
	movq	8(%rax), %rdx
	leaq	-8(%rdx), %rcx
	movq	%rcx, 8(%rax)
	leaq	128(%rax), %rcx
	movq	%rcx, -8(%rdx)
	movq	8(%rax), %rdx
	leaq	-8(%rdx), %rcx
	movq	%rcx, 8(%rax)
	movq	$10, -8(%rdx)
	movq	456(%rax), %rdi
	cmpq	%rdi, 8(%rax)
	ja	.L653
	movq	%rax, %rbp
	movq	280(%rsp), %rax
	movq	%rax, 0(%rbp)
	movq	240(%rsp), %rax
	movq	%rax, 24(%rbp)
	movq	232(%rsp), %rax
	movq	%rax, 16(%rbp)
	movq	%r13, 72(%rbp)
	orl	$1073741824, 64(%rbp)
	call	trail_ov@PLT
	andl	$-1073741825, 64(%rbp)
.L653:
	movq	ec_@GOTPCREL(%rip), %rax
	movl	$1, 128(%rax)
.L652:
	movq	ec_@GOTPCREL(%rip), %rax
	movq	432(%rax), %rdx
	movq	%rdx, 80(%rbx)
	movq	744(%rax), %rdx
	movq	736(%rax), %rax
	movq	%rax, 96(%rbx)
	movq	%rdx, 104(%rbx)
	leaq	112(%rbx), %rax
	cmpq	$14, 104(%rbx)
	je	.L2232
	leaq	4352(%rbx), %rdx
	movq	ec_@GOTPCREL(%rip), %rcx
	leaq	752(%rcx), %r12
.L656:
	addq	$16, %r12
	movq	-16(%r12), %rcx
	movq	-8(%r12), %rbx
	movq	%rcx, (%rax)
	movq	%rbx, 8(%rax)
	addq	$16, %rax
	cmpq	$14, -8(%rax)
	je	.L655
	cmpq	%rdx, %rax
	jne	.L656
	jmp	.L655
.L2232:
	movq	ec_@GOTPCREL(%rip), %rdx
	leaq	752(%rdx), %r12
.L655:
	movq	exception_fail_code_@GOTPCREL(%rip), %rdx
	movq	%rdx, (%rax)
	movq	ec_@GOTPCREL(%rip), %rdx
	movq	48(%rdx), %rcx
	movq	%rcx, 8(%rax)
	addq	$16, %rax
	movq	%rax, 48(%rdx)
	cmpq	464(%rdx), %rax
	jb	.L657
	movq	280(%rsp), %rsi
	movq	%rsi, (%rdx)
	movq	240(%rsp), %rdi
	movq	%rdi, 24(%rdx)
	movq	232(%rsp), %rsi
	movq	%rsi, 16(%rdx)
	movq	%r13, 72(%rdx)
	orl	$1073741824, 64(%rdx)
	call	control_ov@PLT
	testl	%eax, %eax
	je	.L658
	movq	240(%rsp), %r14
	movq	280(%rsp), %rax
	movq	%rax, 216(%rsp)
	jmp	.L411
	.p2align 4,,10
	.p2align 3
.L658:
	movq	ec_@GOTPCREL(%rip), %rax
	andl	$-1073741825, 64(%rax)
.L657:
	movq	ec_@GOTPCREL(%rip), %rax
	movq	$10, 744(%rax)
	movslq	%r14d, %rdx
	movq	%rdx, 736(%rax)
	movq	352(%rsp), %rdx
	movq	360(%rsp), %rcx
	movq	%rdx, 752(%rax)
	movq	%rcx, 760(%rax)
	movq	296(%rsp), %rdi
	movq	24(%rdi), %rdx
	movq	%rdx, 768(%rax)
	movq	$267, 776(%rax)
	testl	$117440512, 48(%rdi)
	jne	.L659
	movq	ec_@GOTPCREL(%rip), %rax
	movq	$11, 792(%rax)
	movq	32(%rdi), %rdx
	movq	%rdx, 784(%rax)
	jmp	.L660
.L659:
	movq	296(%rsp), %rax
	movq	24(%rax), %rax
	movq	ec_@GOTPCREL(%rip), %rdx
	movq	%rax, 784(%rdx)
	movq	$267, 792(%rdx)
.L660:
	movq	ec_@GOTPCREL(%rip), %rax
	movq	$14, 808(%rax)
	movq	bip_error_code_@GOTPCREL(%rip), %rax
	movq	(%rax), %rax
	leaq	8(%rax), %r13
	movq	(%rax), %rax
	movq	240(%rsp), %r14
	movq	280(%rsp), %rsi
	movq	%rsi, 216(%rsp)
	jmp	.L428
.L661:
	movq	ec_@GOTPCREL(%rip), %rax
	movq	$0, 200(%rax)
	testl	%ebp, %ebp
	jne	.L662
	movq	$0, 80(%rax)
	movq	424(%rax), %rax
	cmpq	%rax, %r15
	jae	.L2233
	movq	%r13, %rax
	leaq	8(%r13), %r13
	movq	(%rax), %rax
	movq	240(%rsp), %r14
	movq	%r15, 232(%rsp)
	movq	296(%rsp), %rdi
	movq	%rdi, 216(%rsp)
	jmp	.L428
.L662:
	cmpl	$1, %ebp
	je	.L2234
	movl	%ebp, %eax
	andl	$-8, %eax
	cmpl	$8, %eax
	jne	.L664
	movq	ec_@GOTPCREL(%rip), %rax
	movq	5024(%rax), %rax
	testb	$1, 33(%rax)
	jne	.L665
	movq	ec_@GOTPCREL(%rip), %rax
	movq	$0, 104(%rax)
	movl	$-4, %ebp
	jmp	.L666
.L665:
	movq	%r15, 216(%rsp)
	movq	ec_@GOTPCREL(%rip), %rax
	cmpq	$0, 80(%rax)
	jne	.L667
	movq	328(%rsp), %rax
	movq	40(%rax), %rax
	movq	%rax, 288(%rsp)
	movq	(%rax), %rcx
	movq	ec_@GOTPCREL(%rip), %rdx
	movq	%r15, 80(%rdx)
	leaq	6(%rcx), %rax
	salq	$4, %rax
	addq	%r15, %rax
	movq	%rax, 216(%rsp)
	movq	88(%rdx), %rax
	movq	%rax, (%r15)
	movq	%r15, 88(%rdx)
	movq	328(%rsp), %rax
	movl	48(%rax), %eax
	andl	$2097152, %eax
	cmpl	$1, %eax
	sbbq	%rax, %rax
	xorb	%al, %al
	addq	$271, %rax
	movq	%rax, 8(%r15)
	movq	328(%rsp), %rax
	movq	%rax, 16(%r15)
	movq	$0, 24(%r15)
	movq	48(%rdx), %rax
	movq	-8(%rax), %rax
	movq	8(%rax), %rax
	movq	%rax, 32(%r15)
	movq	328(%rsp), %rax
	movzbl	52(%rax), %eax
	movl	%eax, %edx
	andl	$15, %edx
	shrb	$4, %al
	movzbl	%al, %eax
	cmpl	%edx, %eax
	cmovg	%edx, %eax
	sall	$24, %eax
	sall	$20, %edx
	orl	%edx, %eax
	cltq
	movabsq	$-9223372036854775553, %rdx
	orq	%rdx, %rax
	movq	%rax, 40(%r15)
	leaq	80(%r15), %rax
	movq	%rax, 48(%r15)
	movq	$1, 56(%r15)
	movq	$11, 72(%r15)
	movq	328(%rsp), %rax
	movq	24(%rax), %rax
	movq	%rax, 64(%r15)
	movq	288(%rsp), %rax
	movq	%rax, 80(%r15)
	leaq	96(%r15), %rax
	movq	%rax, 264(%rsp)
	movq	$11, 88(%r15)
	movq	%rcx, 256(%rsp)
	testq	%rcx, %rcx
	je	.L669
	addq	$112, %r15
	movq	ec_@GOTPCREL(%rip), %rax
	addq	$736, %rax
	movq	%rax, 224(%rsp)
	movq	$1, 232(%rsp)
.L676:
	leaq	-16(%r15), %rax
	movq	%rax, 272(%rsp)
	movq	224(%rsp), %r14
	cmpq	$0, 8(%r14)
	jns	.L673
	cmpq	(%r14), %r14
	je	.L671
.L672:
	movq	(%r14), %r14
	cmpq	$0, 8(%r14)
	jns	.L673
	cmpq	%r14, (%r14)
	jne	.L672
.L671:
	cmpq	%r14, 296(%rsp)
	ja	.L673
	cmpq	%r14, 280(%rsp)
	ja	.L674
	movq	ec_@GOTPCREL(%rip), %rcx
	movq	8(%rcx), %rdx
	leaq	-8(%rdx), %rax
	movq	%rax, 8(%rcx)
	movq	%r14, -8(%rdx)
	movq	456(%rcx), %rax
	cmpq	%rax, 8(%rcx)
	ja	.L674
	movq	%rcx, %rbx
	movq	296(%rsp), %rax
	movq	%rax, (%rcx)
	movq	240(%rsp), %rax
	movq	%rax, 24(%rcx)
	movq	216(%rsp), %rax
	movq	%rax, 16(%rcx)
	movq	%r13, 72(%rcx)
	orl	$1073741824, 64(%rcx)
	call	trail_ov@PLT
	andl	$-1073741825, 64(%rbx)
.L674:
	movq	272(%rsp), %rax
	movq	%rax, (%r14)
	movq	%r15, 264(%rsp)
	movq	%rax, -16(%r15)
	movabsq	$-9223372036854775553, %rax
	movq	%rax, -8(%r15)
	jmp	.L675
	.p2align 4,,10
	.p2align 3
.L673:
	movq	%r15, 264(%rsp)
	movq	(%r14), %rax
	movq	8(%r14), %rdx
	movq	%rax, -16(%r15)
	movq	%rdx, -8(%r15)
.L675:
	addq	$1, 232(%rsp)
	addq	$16, %r15
	addq	$16, 224(%rsp)
	movq	256(%rsp), %rax
	cmpq	%rax, 232(%rsp)
	jbe	.L676
.L669:
	movq	ec_@GOTPCREL(%rip), %rax
	movq	216(%rsp), %rsi
	cmpq	448(%rax), %rsi
	jb	.L667
	movq	%rax, %rbx
	movq	296(%rsp), %rax
	movq	%rax, (%rbx)
	movq	240(%rsp), %rax
	movq	%rax, 24(%rbx)
	movq	%rsi, 16(%rbx)
	movq	%r13, 72(%rbx)
	orl	$1073741824, 64(%rbx)
	call	global_ov@PLT
	andl	$-1073741825, 64(%rbx)
.L667:
	testb	$7, %bpl
	je	.L677
	movq	ec_@GOTPCREL(%rip), %rax
	movq	280(%rsp), %rdi
	movq	%rdi, 32(%rax)
	movq	248(%rsp), %rsi
	movq	%rsi, 40(%rax)
	movq	296(%rsp), %rdi
	movq	%rdi, (%rax)
	movq	240(%rsp), %rsi
	movq	%rsi, 24(%rax)
	movq	216(%rsp), %rdi
	movq	%rdi, 16(%rax)
	movq	%r13, 72(%rax)
	orl	$1073741824, 64(%rax)
	testb	$1, %bpl
	je	.L678
	movq	736(%rax), %rax
	cmpq	$0, 8(%rax)
	jns	.L679
	cmpq	(%rax), %rax
	je	.L679
.L680:
	movq	(%rax), %rax
	cmpq	$0, 8(%rax)
	jns	.L679
	cmpq	%rax, (%rax)
	jne	.L680
.L679:
	movq	ec_@GOTPCREL(%rip), %rdx
	movq	80(%rdx), %rdx
	movl	$1, %ecx
	movl	$1, %esi
	movq	%rax, %rdi
	call	insert_suspension@PLT
	testl	%eax, %eax
	jns	.L678
	movq	ec_@GOTPCREL(%rip), %rdx
	movq	16(%rdx), %r15
	andl	$-1073741825, 64(%rdx)
	movl	%eax, %ebp
	jmp	.L666
.L678:
	testb	$2, %bpl
	je	.L681
	movq	ec_@GOTPCREL(%rip), %rax
	movq	752(%rax), %rax
	cmpq	$0, 8(%rax)
	jns	.L682
	cmpq	(%rax), %rax
	je	.L682
.L683:
	movq	(%rax), %rax
	cmpq	$0, 8(%rax)
	jns	.L682
	cmpq	%rax, (%rax)
	jne	.L683
.L682:
	movq	ec_@GOTPCREL(%rip), %rdx
	movq	80(%rdx), %rdx
	movl	$1, %ecx
	movl	$1, %esi
	movq	%rax, %rdi
	call	insert_suspension@PLT
	testl	%eax, %eax
	jns	.L681
	movq	ec_@GOTPCREL(%rip), %rdx
	movq	16(%rdx), %r15
	andl	$-1073741825, 64(%rdx)
	movl	%eax, %ebp
	jmp	.L666
.L681:
	andl	$4, %ebp
	je	.L684
	movq	ec_@GOTPCREL(%rip), %rax
	movq	768(%rax), %rax
	cmpq	$0, 8(%rax)
	jns	.L685
	cmpq	(%rax), %rax
	je	.L685
.L686:
	movq	(%rax), %rax
	cmpq	$0, 8(%rax)
	jns	.L685
	cmpq	%rax, (%rax)
	jne	.L686
.L685:
	movq	ec_@GOTPCREL(%rip), %rdx
	movq	80(%rdx), %rdx
	movl	$1, %ecx
	movl	$1, %esi
	movq	%rax, %rdi
	call	insert_suspension@PLT
	movl	%eax, %ebp
	testl	%eax, %eax
	jns	.L684
	movq	ec_@GOTPCREL(%rip), %rax
	movq	16(%rax), %r15
	andl	$-1073741825, 64(%rax)
	jmp	.L666
.L684:
	movq	ec_@GOTPCREL(%rip), %rax
	movq	16(%rax), %r15
	andl	$-1073741825, 64(%rax)
	jmp	.L687
.L677:
	movq	ec_@GOTPCREL(%rip), %rax
	movq	104(%rax), %r12
	movq	280(%rsp), %rsi
	movq	%rsi, 32(%rax)
	movq	248(%rsp), %rdi
	movq	%rdi, 40(%rax)
	movq	296(%rsp), %rsi
	movq	%rsi, (%rax)
	movq	240(%rsp), %rdi
	movq	%rdi, 24(%rax)
	movq	216(%rsp), %rsi
	movq	%rsi, 16(%rax)
	movq	%r13, 72(%rax)
	orl	$1073741824, 64(%rax)
	movq	%rax, %rbx
.L693:
	movq	(%r12), %rax
	cmpq	$0, 8(%rax)
	jns	.L688
	cmpq	(%rax), %rax
	je	.L688
.L689:
	movq	(%rax), %rax
	cmpq	$0, 8(%rax)
	jns	.L688
	cmpq	%rax, (%rax)
	jne	.L689
.L688:
	movl	%ebp, %edx
	andl	$16, %edx
	cmpl	$1, %edx
	sbbl	%esi, %esi
	andl	$-2, %esi
	addl	$3, %esi
	movl	$1, %ecx
	movq	80(%rbx), %rdx
	movq	%rax, %rdi
	call	insert_suspension@PLT
	testl	%eax, %eax
	jns	.L691
	movq	ec_@GOTPCREL(%rip), %rdx
	movq	16(%rdx), %r15
	andl	$-1073741825, 64(%rdx)
	movl	%eax, %ebp
	jmp	.L666
	.p2align 4,,10
	.p2align 3
.L691:
	cmpb	$0, 24(%r12)
	jne	.L692
	movq	16(%r12), %r12
	jmp	.L693
.L692:
	movq	ec_@GOTPCREL(%rip), %rax
	movq	16(%rax), %r15
	andl	$-1073741825, 64(%rax)
	movq	$0, 104(%rax)
.L687:
	movq	ec_@GOTPCREL(%rip), %rax
	movq	$0, 80(%rax)
	movq	424(%rax), %rax
	cmpq	%rax, %r15
	jae	.L2238
	movq	%r13, %rax
	leaq	8(%r13), %r13
	movq	(%rax), %rax
	movq	240(%rsp), %r14
	movq	%r15, 232(%rsp)
	movq	296(%rsp), %rdi
	movq	%rdi, 216(%rsp)
	jmp	.L428
	.p2align 4,,10
	.p2align 3
.L664:
	cmpl	$2, %ebp
	jne	.L694
	movq	ec_@GOTPCREL(%rip), %rax
	movq	$0, 80(%rax)
	movq	do_exit_block_code_@GOTPCREL(%rip), %rax
	movq	(%rax), %rax
	leaq	8(%rax), %r13
	movq	(%rax), %rax
	movq	240(%rsp), %r14
	movq	%r15, 232(%rsp)
	movq	296(%rsp), %rsi
	movq	%rsi, 216(%rsp)
	jmp	.L428
.L694:
	testl	%ebp, %ebp
	movl	$-212, %eax
	cmovg	%eax, %ebp
.L666:
	movq	ec_@GOTPCREL(%rip), %rax
	movq	80(%rax), %rax
	testq	%rax, %rax
	je	.L695
	cmpq	%rax, 248(%rsp)
	jbe	.L696
	movq	ec_@GOTPCREL(%rip), %rax
	movq	8(%rax), %rdx
	leaq	-8(%rdx), %rcx
	movq	%rcx, 8(%rax)
	movq	80(%rax), %rcx
	movq	8(%rcx), %rcx
	movq	%rcx, -8(%rdx)
	movq	8(%rax), %rdx
	leaq	-8(%rdx), %rcx
	movq	%rcx, 8(%rax)
	movq	80(%rax), %rcx
	movq	%rcx, -8(%rdx)
	movq	8(%rax), %rdx
	leaq	-8(%rdx), %rcx
	movq	%rcx, 8(%rax)
	movq	$266, -8(%rdx)
	movq	456(%rax), %rdi
	cmpq	%rdi, 8(%rax)
	ja	.L696
	movq	%rax, %rbx
	movq	296(%rsp), %rax
	movq	%rax, (%rbx)
	movq	240(%rsp), %rax
	movq	%rax, 24(%rbx)
	movq	%r15, 16(%rbx)
	movq	%r13, 72(%rbx)
	orl	$1073741824, 64(%rbx)
	call	trail_ov@PLT
	andl	$-1073741825, 64(%rbx)
.L696:
	movq	ec_@GOTPCREL(%rip), %rax
	movq	80(%rax), %rdx
	orq	$512, 8(%rdx)
	movq	$0, 80(%rax)
.L695:
	negl	%ebp
	movl	%ebp, 272(%rsp)
	movq	328(%rsp), %rax
	movq	40(%rax), %rax
	movq	%rax, 288(%rsp)
	movq	(%rax), %rcx
	movq	error_handler_@GOTPCREL(%rip), %rax
	movq	(%rax), %rdx
	movslq	%ebp, %rax
	movq	(%rdx,%rax,8), %rax
	movq	%rax, 320(%rsp)
	testq	%rax, %rax
	jne	.L697
	movq	(%rdx), %rax
	movq	%rax, 320(%rsp)
.L697:
	movq	320(%rsp), %rax
	movq	40(%rax), %rax
	movq	ec_@GOTPCREL(%rip), %rdx
	cmpq	14360(%rdx), %rax
	jne	.L698
	movq	320(%rsp), %rsi
	movq	14312(%rdx), %rdi
	cmpq	%rdi, 32(%rsi)
	jne	.L698
	movq	424(%rdx), %rax
	cmpq	%rax, %r15
	jae	.L2240
	movq	%r13, %rax
	leaq	8(%r13), %r13
	movq	(%rax), %rax
	movq	240(%rsp), %r14
	movq	%r15, 232(%rsp)
	movq	296(%rsp), %rsi
	movq	%rsi, 216(%rsp)
	jmp	.L428
	.p2align 4,,10
	.p2align 3
.L698:
	movq	ec_@GOTPCREL(%rip), %rdx
	cmpq	14304(%rdx), %rax
	jne	.L699
	movq	320(%rsp), %rdi
	movq	14312(%rdx), %rax
	cmpq	%rax, 32(%rdi)
	je	.L2241
.L699:
	movq	%rcx, 224(%rsp)
	movq	%rcx, %rax
	addq	$1, %rax
	salq	$4, %rax
	addq	%r15, %rax
	movq	%rax, 232(%rsp)
	movq	288(%rsp), %rax
	movq	%rax, (%r15)
	leaq	16(%r15), %rax
	movq	%rax, 264(%rsp)
	movq	$11, 8(%r15)
	testq	%rcx, %rcx
	je	.L700
	leaq	32(%r15), %rbp
	movq	ec_@GOTPCREL(%rip), %rax
	leaq	736(%rax), %r14
	movq	$1, 216(%rsp)
.L707:
	leaq	-16(%rbp), %rax
	movq	%rax, 256(%rsp)
	movq	%r14, %r12
	cmpq	$0, 8(%r14)
	jns	.L704
	cmpq	(%r14), %r14
	je	.L702
.L703:
	movq	(%r12), %r12
	cmpq	$0, 8(%r12)
	jns	.L704
	cmpq	%r12, (%r12)
	jne	.L703
.L702:
	cmpq	%r12, 296(%rsp)
	ja	.L704
	cmpq	%r12, 280(%rsp)
	ja	.L705
	movq	ec_@GOTPCREL(%rip), %rcx
	movq	8(%rcx), %rdx
	leaq	-8(%rdx), %rax
	movq	%rax, 8(%rcx)
	movq	%r12, -8(%rdx)
	movq	456(%rcx), %rax
	cmpq	%rax, 8(%rcx)
	ja	.L705
	movq	%rcx, %rbx
	movq	296(%rsp), %rax
	movq	%rax, (%rcx)
	movq	240(%rsp), %rax
	movq	%rax, 24(%rcx)
	movq	232(%rsp), %rax
	movq	%rax, 16(%rcx)
	movq	%r13, 72(%rcx)
	orl	$1073741824, 64(%rcx)
	call	trail_ov@PLT
	andl	$-1073741825, 64(%rbx)
.L705:
	movq	256(%rsp), %rax
	movq	%rax, (%r12)
	movq	%rbp, 264(%rsp)
	movq	%rax, -16(%rbp)
	movabsq	$-9223372036854775553, %rax
	movq	%rax, -8(%rbp)
	jmp	.L706
.L704:
	movq	%rbp, 264(%rsp)
	movq	(%r12), %rax
	movq	8(%r12), %rdx
	movq	%rax, -16(%rbp)
	movq	%rdx, -8(%rbp)
.L706:
	addq	$1, 216(%rsp)
	addq	$16, %rbp
	addq	$16, %r14
	movq	216(%rsp), %rax
	cmpq	%rax, 224(%rsp)
	jae	.L707
.L700:
	movq	ec_@GOTPCREL(%rip), %rax
	movq	232(%rsp), %rsi
	cmpq	448(%rax), %rsi
	jb	.L708
	movq	%rax, %rbx
	movq	296(%rsp), %rax
	movq	%rax, (%rbx)
	movq	240(%rsp), %rax
	movq	%rax, 24(%rbx)
	movq	%rsi, 16(%rbx)
	movq	%r13, 72(%rbx)
	orl	$1073741824, 64(%rbx)
	call	global_ov@PLT
	andl	$-1073741825, 64(%rbx)
.L708:
	movq	ec_@GOTPCREL(%rip), %rax
	movq	$10, 744(%rax)
	movslq	272(%rsp), %rdx
	movq	%rdx, 736(%rax)
	movq	$1, 760(%rax)
	movq	%r15, 752(%rax)
	movq	328(%rsp), %rdi
	movq	24(%rdi), %rdx
	movq	%rdx, 768(%rax)
	movq	$267, 776(%rax)
	testl	$117440512, 48(%rdi)
	jne	.L709
	movq	ec_@GOTPCREL(%rip), %rax
	movq	$11, 792(%rax)
	movq	32(%rdi), %rdx
	movq	%rdx, 784(%rax)
	jmp	.L710
.L709:
	movq	328(%rsp), %rax
	movq	24(%rax), %rax
	movq	ec_@GOTPCREL(%rip), %rdx
	movq	%rax, 784(%rdx)
	movq	$267, 792(%rdx)
.L710:
	movq	ec_@GOTPCREL(%rip), %rax
	movq	$1, 288(%rax)
	jmp	.L711
.L2200:
	movl	$1, 308(%rsp)
.L411:
	movq	ec_@GOTPCREL(%rip), %rax
	andl	$-1073741825, 64(%rax)
	movq	14536(%rax), %rdx
	movq	%rdx, 736(%rax)
	movq	$11, 744(%rax)
	movq	do_exit_block_code_@GOTPCREL(%rip), %rax
	movq	(%rax), %rax
	leaq	8(%rax), %r13
	movq	(%rax), %rax
.L412:
	movq	248(%rsp), %rdi
	movq	%rdi, 256(%rsp)
	movq	280(%rsp), %rsi
	movq	%rsi, 272(%rsp)
	movq	%r14, 240(%rsp)
	movq	232(%rsp), %rdi
	movq	%rdi, 224(%rsp)
	jmp	*%rax
.L2295:
	movq	256(%rsp), %rax
	movq	%rax, 248(%rsp)
	movq	272(%rsp), %rax
	movq	%rax, 280(%rsp)
	movq	240(%rsp), %rdx
	movq	224(%rsp), %rax
	movq	%rax, 232(%rsp)
	jmp	.L713
.L2296:
	movq	256(%rsp), %rax
	movq	%rax, 248(%rsp)
	movq	272(%rsp), %rax
	movq	%rax, 280(%rsp)
	movq	240(%rsp), %rdx
	movl	$1, 308(%rsp)
	jmp	.L713
.L2297:
	movq	256(%rsp), %rax
	movq	%rax, 248(%rsp)
	movq	272(%rsp), %rax
	movq	%rax, 280(%rsp)
	movq	240(%rsp), %rdx
	movq	224(%rsp), %rax
	movq	%rax, 232(%rsp)
	jmp	.L713
.L2298:
	movq	256(%rsp), %rax
	movq	%rax, 248(%rsp)
	movq	272(%rsp), %rax
	movq	%rax, 280(%rsp)
	movq	240(%rsp), %rdx
	movq	224(%rsp), %rax
	movq	%rax, 232(%rsp)
	jmp	.L713
.L2299:
	movq	256(%rsp), %rax
	movq	%rax, 248(%rsp)
	movq	272(%rsp), %rax
	movq	%rax, 280(%rsp)
	movq	240(%rsp), %rdx
	movl	$1, 308(%rsp)
	jmp	.L713
.L2300:
	movq	256(%rsp), %rax
	movq	%rax, 248(%rsp)
	movq	272(%rsp), %rax
	movq	%rax, 280(%rsp)
	movq	224(%rsp), %rax
	movq	%rax, 232(%rsp)
	movl	$1, 308(%rsp)
	jmp	.L713
.L2301:
	movq	256(%rsp), %rax
	movq	%rax, 248(%rsp)
	movq	272(%rsp), %rax
	movq	%rax, 280(%rsp)
	movq	224(%rsp), %rax
	movq	%rax, 232(%rsp)
	movl	$1, 308(%rsp)
	jmp	.L713
.L2303:
	movq	256(%rsp), %rax
	movq	%rax, 248(%rsp)
	movq	272(%rsp), %rax
	movq	%rax, 280(%rsp)
	movq	240(%rsp), %rdx
	movq	224(%rsp), %rax
	movq	%rax, 232(%rsp)
	jmp	.L713
.L2305:
	movq	256(%rsp), %rax
	movq	%rax, 248(%rsp)
	movq	272(%rsp), %rax
	movq	%rax, 280(%rsp)
	movq	240(%rsp), %rdx
	movq	224(%rsp), %rax
	movq	%rax, 232(%rsp)
	jmp	.L713
.L2310:
	movq	256(%rsp), %rax
	movq	%rax, 248(%rsp)
	movq	272(%rsp), %rax
	movq	%rax, 280(%rsp)
	movq	224(%rsp), %rax
	movq	%rax, 232(%rsp)
	jmp	.L713
.L2312:
	movq	256(%rsp), %rax
	movq	%rax, 248(%rsp)
	movq	272(%rsp), %rax
	movq	%rax, 280(%rsp)
	movq	224(%rsp), %rax
	movq	%rax, 232(%rsp)
	jmp	.L713
.L2343:
	movq	%r14, %rdx
.L713:
	movq	-8(%r13), %rsi
	shrq	$24, %rsi
.L714:
	movq	216(%rsp), %rax
	leaq	-8(%rax), %r14
	movq	%rdx, -8(%rax)
	movq	ec_@GOTPCREL(%rip), %rax
	cmpq	$0, 280(%rax)
	je	.L715
	leaq	8(%rsi), %rax
	salq	$8, %rax
	movabsq	$1152921504606846988, %rdx
	orq	%rdx, %rax
	movq	216(%rsp), %rdi
	movq	%rax, -16(%rdi)
	movq	%rdi, %rax
	movq	%r13, -24(%rdi)
	subq	$152, %rax
	movq	%rax, 296(%rsp)
	movq	ec_@GOTPCREL(%rip), %rax
	cmpq	$1, 80(%rax)
	sbbq	%rax, %rax
	andl	$7, %eax
	addq	$2, %rax
	movq	%rax, -32(%rdi)
	movq	ec_@GOTPCREL(%rip), %rax
	movq	80(%rax), %rdx
	movq	%rdx, -40(%rdi)
	movq	$12, -48(%rdi)
	movq	280(%rax), %rdx
	movq	%rdx, -56(%rdi)
	movq	$10, -64(%rdi)
	movq	288(%rax), %rdx
	movq	%rdx, -72(%rdi)
	movq	$10, -80(%rdi)
	movq	296(%rax), %rdx
	movq	%rdx, -88(%rdi)
	movq	$0, 280(%rax)
	cmpq	$0, 392(%rax)
	je	.L717
	movq	$11, -96(%rdi)
	movq	ec_@GOTPCREL(%rip), %rax
	movq	384(%rax), %rdx
	movq	%rdx, -104(%rdi)
	movq	$10, -112(%rdi)
	movq	392(%rax), %rdx
	movq	%rdx, -120(%rdi)
	movq	$10, -128(%rdi)
	movq	400(%rax), %rdx
	movq	%rdx, -136(%rdi)
	movq	$10, -144(%rdi)
	movq	408(%rax), %rdx
	movq	%rdx, -152(%rdi)
	movq	$0, 392(%rax)
	jmp	.L718
.L717:
	movq	216(%rsp), %rax
	movq	$11, -96(%rax)
	movq	ec_@GOTPCREL(%rip), %rax
	movq	14808(%rax), %rax
	movq	216(%rsp), %rdi
	movq	%rax, -104(%rdi)
	movq	$10, -112(%rdi)
	movq	$0, -120(%rdi)
	movq	$10, -128(%rdi)
	movq	$0, -136(%rdi)
	movq	$10, -144(%rdi)
	movq	$0, -152(%rdi)
.L718:
	movq	restore_debug_code_@GOTPCREL(%rip), %rax
	leaq	8(%rax), %r13
.L721:
	testq	%rsi, %rsi
	jne	.L719
	jmp	.L720
.L715:
	movq	216(%rsp), %rax
	subq	$24, %rax
	movq	%rax, 296(%rsp)
	movq	%rsi, %rax
	salq	$8, %rax
	orq	$12, %rax
	movq	216(%rsp), %rdi
	movq	%rax, -16(%rdi)
	movq	%r13, -24(%rdi)
	movq	restore_code_@GOTPCREL(%rip), %rax
	leaq	8(%rax), %r13
	jmp	.L721
.L719:
	movq	%rsi, %rcx
	movq	296(%rsp), %rdx
	movq	ec_@GOTPCREL(%rip), %rax
	addq	$736, %rax
.L723:
	subq	$16, %rdx
	addq	$16, %rax
	movq	-16(%rax), %rdi
	movq	-8(%rax), %rbp
	movq	%rdi, (%rdx)
	movq	%rbp, 8(%rdx)
	subq	$1, %rcx
	jne	.L723
	movq	%rsi, %rax
	salq	$4, %rax
	subq	%rax, 296(%rsp)
.L720:
	movq	232(%rsp), %r15
	movq	ec_@GOTPCREL(%rip), %rax
	movq	296(%rsp), %rdi
	cmpq	%rdi, 472(%rax)
	jb	.L663
	movq	%rdi, (%rax)
	movq	%r14, 24(%rax)
	movq	%r15, 16(%rax)
	movq	%r13, 72(%rax)
	orl	$1073741824, 64(%rax)
	call	local_ov@PLT
	testl	%eax, %eax
	je	.L724
	movq	296(%rsp), %rax
	movq	%rax, 216(%rsp)
	jmp	.L411
	.p2align 4,,10
	.p2align 3
.L724:
	movq	ec_@GOTPCREL(%rip), %rax
	andl	$-1073741825, 64(%rax)
	movq	232(%rsp), %r15
	jmp	.L663
.L2233:
	movq	240(%rsp), %r14
	jmp	.L663
.L2238:
	movq	240(%rsp), %r14
	jmp	.L663
.L2240:
	movq	240(%rsp), %r14
	jmp	.L663
	.p2align 4,,10
	.p2align 3
.L2306:
	movq	256(%rsp), %rax
	movq	%rax, 248(%rsp)
	movq	272(%rsp), %rax
	movq	%rax, 280(%rsp)
	movq	240(%rsp), %r14
	movq	224(%rsp), %r15
	jmp	.L663
.L2307:
	movq	256(%rsp), %rax
	movq	%rax, 248(%rsp)
	movq	272(%rsp), %rax
	movq	%rax, 280(%rsp)
	movq	240(%rsp), %r14
	movq	224(%rsp), %r15
	jmp	.L663
.L2308:
	movq	256(%rsp), %rax
	movq	%rax, 248(%rsp)
	movq	272(%rsp), %rax
	movq	%rax, 280(%rsp)
	movq	240(%rsp), %r14
	movq	224(%rsp), %r15
	movq	216(%rsp), %rax
	movq	%rax, 296(%rsp)
	movl	$1, 308(%rsp)
	jmp	.L663
.L2313:
	movq	256(%rsp), %rax
	movq	%rax, 248(%rsp)
	movq	272(%rsp), %rax
	movq	%rax, 280(%rsp)
	movq	224(%rsp), %r15
	movl	$1, 308(%rsp)
	jmp	.L663
.L2315:
	movq	256(%rsp), %rax
	movq	%rax, 248(%rsp)
	movq	272(%rsp), %rax
	movq	%rax, 280(%rsp)
	movq	224(%rsp), %r15
	jmp	.L663
.L2345:
	movq	%rbx, %r14
	movq	232(%rsp), %r15
	jmp	.L663
.L2363:
	movq	256(%rsp), %rax
	movq	%rax, 248(%rsp)
	movq	272(%rsp), %rax
	movq	%rax, 280(%rsp)
	movq	240(%rsp), %r14
.L663:
	movq	ec_@GOTPCREL(%rip), %rax
	movq	432(%rax), %rdx
	movq	%rdx, 424(%rax)
	movq	296(%rsp), %rsi
	leaq	-8(%rsi), %rdi
	movq	%rdi, 216(%rsp)
	movq	%r13, %rbx
	movq	%rsi, %rdi
	movq	%r13, -8(%rdi)
	cmpq	432(%rax), %r15
	jb	.L725
	movq	auto_gc_code_@GOTPCREL(%rip), %rax
	movq	(%rax), %r13
	movq	ec_@GOTPCREL(%rip), %rax
	cmpq	$0, 96(%rax)
	jne	.L726
	movl	68(%rax), %eax
	testl	%eax, %eax
	je	.L727
.L726:
	movq	ec_@GOTPCREL(%rip), %rax
	movq	$0, 424(%rax)
.L727:
	movq	%r13, %rax
	leaq	8(%r13), %r13
	movq	(%rax), %rax
	movq	%r15, 232(%rsp)
	jmp	.L428
.L725:
	movq	ec_@GOTPCREL(%rip), %rax
	cmpq	$0, 96(%rax)
	je	.L728
	movq	error_handler_@GOTPCREL(%rip), %rax
	movq	(%rax), %rax
	movq	88(%rax), %rax
	movq	(%rax), %r13
	movq	ec_@GOTPCREL(%rip), %rax
	movq	96(%rax), %rdx
	movq	%rdx, 736(%rax)
	movq	$0, 744(%rax)
	movq	$0, 96(%rax)
	movl	68(%rax), %eax
	testl	%eax, %eax
	je	.L729
	movq	ec_@GOTPCREL(%rip), %rax
	movq	$0, 424(%rax)
	jmp	.L729
.L728:
	movq	ec_@GOTPCREL(%rip), %rax
	movl	68(%rax), %eax
	testl	%eax, %eax
	je	.L730
	movq	ec_@GOTPCREL(%rip), %rax
	cmpq	$0, 232(%rax)
	jne	.L730
	movl	68(%rax), %eax
	testb	$16, %al
	je	.L731
	movq	ec_@GOTPCREL(%rip), %rax
	testb	$1, 64(%rax)
	je	.L732
	leaq	8(%r13), %r13
	movq	(%rbx), %rax
	movq	%r15, 232(%rsp)
	movq	296(%rsp), %rsi
	movq	%rsi, 216(%rsp)
	jmp	.L428
.L732:
	movq	ec_@GOTPCREL(%rip), %rbx
	leaq	736(%rbx), %rdi
	call	next_posted_event@PLT
	movq	744(%rbx), %rax
	cmpb	$10, %al
	jne	.L733
	movq	sync_it_code_@GOTPCREL(%rip), %rax
	movq	(%rax), %r13
	jmp	.L734
.L733:
	movq	ec_@GOTPCREL(%rip), %rdx
	cmpl	$1, 616(%rdx)
	jle	.L735
	movq	%rdx, %rax
	movq	736(%rdx), %rdx
	movq	744(%rax), %rax
	movq	%rdx, %rdi
	movq	%rax, %rsi
	call	ec_post_event@PLT
	movq	296(%rsp), %rax
	movq	-8(%rax), %rax
	leaq	8(%rax), %r13
	movq	(%rax), %rax
	movq	%r15, 232(%rsp)
	movq	296(%rsp), %rsi
	movq	%rsi, 216(%rsp)
	jmp	.L428
.L735:
	cmpb	$12, %al
	jne	.L736
	movq	ec_@GOTPCREL(%rip), %rcx
	movq	736(%rcx), %rbp
	movq	16(%rbp), %rax
	movq	24(%rbp), %rdx
	movq	%rax, 768(%rcx)
	movq	%rdx, 776(%rcx)
	movq	%rax, 752(%rcx)
	movq	%rdx, 760(%rcx)
	cmpw	$0, 40(%rbp)
	je	.L737
	movq	%rcx, %rbx
	movq	216(%rsp), %rax
	movq	%rax, (%rcx)
	movq	%r14, 24(%rcx)
	movq	%r15, 16(%rcx)
	movq	%r13, 72(%rcx)
	orl	$1073741824, 64(%rcx)
	leaq	736(%rcx), %rsi
	movq	%rbp, %rdi
	call	get_heapterm@PLT
	movq	16(%rbx), %r15
	movl	64(%rbx), %eax
	andl	$-1073741825, %eax
	movl	%eax, 64(%rbx)
	cmpw	$0, 42(%rbp)
	je	.L738
	orl	$1, %eax
	movq	ec_@GOTPCREL(%rip), %rdx
	movl	%eax, 64(%rdx)
	jmp	.L738
.L737:
	movq	ec_@GOTPCREL(%rip), %rax
	movq	$11, 744(%rax)
	movq	14360(%rax), %rdx
	movq	%rdx, 736(%rax)
.L738:
	movq	%rbp, %rdi
	movq	heap_event_tid@GOTPCREL(%rip), %rax
	call	*(%rax)
	movq	do_call_code_@GOTPCREL(%rip), %rax
	movq	(%rax), %r13
	jmp	.L734
.L736:
	movq	ec_@GOTPCREL(%rip), %rax
	movq	$9, 760(%rax)
	movq	$11, 776(%rax)
	movq	14312(%rax), %rdx
	movq	%rdx, 768(%rax)
	movq	$11, 792(%rax)
	movq	%rdx, 784(%rax)
	movq	prolog_error_code_@GOTPCREL(%rip), %rax
	movq	(%rax), %r13
.L734:
	movq	ec_@GOTPCREL(%rip), %rax
	movl	68(%rax), %eax
	andl	$-17, %eax
	je	.L729
	movq	ec_@GOTPCREL(%rip), %rax
	movq	$0, 424(%rax)
	jmp	.L729
.L731:
	movq	ec_@GOTPCREL(%rip), %rax
	cmpl	$1, 616(%rax)
	jne	.L739
	movl	192(%rax), %eax
	testl	%eax, %eax
	jns	.L740
	addl	$1, %eax
	movq	ec_@GOTPCREL(%rip), %rdx
	movl	%eax, 192(%rdx)
	testl	%eax, %eax
	jne	.L741
	movq	it_disabled_@GOTPCREL(%rip), %rdx
	movl	(%rdx), %eax
	addl	$1, %eax
	movl	%eax, (%rdx)
	movq	ec_@GOTPCREL(%rip), %rcx
	movl	68(%rcx), %eax
	andl	$-9, %eax
	movl	%eax, 68(%rcx)
	subl	$1, (%rdx)
	jne	.L742
	movq	delayed_it_@GOTPCREL(%rip), %rax
	movl	(%rax), %eax
	testl	%eax, %eax
	je	.L742
	movq	delayed_irq_func@GOTPCREL(%rip), %rax
	call	*(%rax)
.L742:
	movq	ec_@GOTPCREL(%rip), %rax
	movl	$1, 192(%rax)
	cmpq	$0, 184(%rax)
	je	.L743
	movq	%rax, %rbp
	movq	296(%rsp), %rax
	movq	%rax, 0(%rbp)
	movq	%r14, 24(%rbp)
	movq	%r15, 16(%rbp)
	movq	%rbx, 72(%rbp)
	orl	$1073741824, 64(%rbp)
	movq	184(%rbp), %rdi
	xorl	%eax, %eax
	call	sch_load_report@PLT
	andl	$-1073741825, 64(%rbp)
	jmp	.L743
.L741:
	movq	ec_@GOTPCREL(%rip), %rax
	movq	$0, 424(%rax)
.L743:
	movq	ec_@GOTPCREL(%rip), %rax
	movl	68(%rax), %eax
	andl	$-9, %eax
	jne	.L740
	leaq	8(%rbx), %r13
	movq	(%rbx), %rax
	movq	%r15, 232(%rsp)
	movq	296(%rsp), %rsi
	movq	%rsi, 216(%rsp)
	jmp	.L428
.L740:
	movq	ec_@GOTPCREL(%rip), %rbp
	movq	280(%rsp), %rax
	movq	%rax, 32(%rbp)
	movq	248(%rsp), %rax
	movq	%rax, 40(%rbp)
	movq	296(%rsp), %rax
	movq	%rax, 0(%rbp)
	movq	%r14, 24(%rbp)
	movq	%r15, 16(%rbp)
	movq	%rbx, 72(%rbp)
	orl	$1073741824, 64(%rbp)
	xorl	%eax, %eax
	call	eng_msg_loop@PLT
	movq	72(%rbp), %r13
	movq	32(%rbp), %rax
	movq	%rax, 280(%rsp)
	movq	40(%rbp), %rax
	movq	%rax, 248(%rsp)
	movq	0(%rbp), %rax
	movq	%rax, 216(%rsp)
	movq	24(%rbp), %r14
	movq	16(%rbp), %rax
	movq	%rax, 232(%rsp)
	andl	$-1073741825, 64(%rbp)
	movq	%r13, %rax
	leaq	8(%r13), %r13
	movq	(%rax), %rax
	jmp	.L428
.L739:
	leaq	8(%r13), %r13
	movq	(%rbx), %rax
	movq	%r15, 232(%rsp)
	movq	296(%rsp), %rsi
	movq	%rsi, 216(%rsp)
	jmp	.L428
	.p2align 4,,10
	.p2align 3
.L730:
	leaq	8(%rbx), %r13
	movq	(%rbx), %rax
	movq	%r15, 232(%rsp)
	movq	296(%rsp), %rsi
	movq	%rsi, 216(%rsp)
	jmp	.L428
.L729:
	movq	%r13, %rax
	leaq	8(%r13), %r13
	movq	(%rax), %rax
	movq	%r15, 232(%rsp)
	jmp	.L428
.L4:
	movq	%r13, %rax
	leaq	8(%r13), %r13
	movq	(%rax), %rax
	subq	$16, 216(%rsp)
	movq	8(%rax), %rdx
	movq	(%rax), %rax
	movq	216(%rsp), %rsi
	movq	%rax, (%rsi)
	movq	%rdx, 8(%rsi)
	movq	ec_@GOTPCREL(%rip), %rax
	cmpq	472(%rax), %rsi
	ja	.L180
	movq	%rsi, (%rax)
	movq	240(%rsp), %rdi
	movq	%rdi, 24(%rax)
	movq	224(%rsp), %rsi
	movq	%rsi, 16(%rax)
	movq	%r13, 72(%rax)
	orl	$1073741824, 64(%rax)
	call	local_ov@PLT
	testl	%eax, %eax
	je	.L744
	movq	256(%rsp), %rax
	movq	%rax, 248(%rsp)
	movq	272(%rsp), %rax
	movq	%rax, 280(%rsp)
	movq	240(%rsp), %r14
	movq	224(%rsp), %rax
	movq	%rax, 232(%rsp)
	jmp	.L411
	.p2align 4,,10
	.p2align 3
.L744:
	movq	ec_@GOTPCREL(%rip), %rax
	andl	$-1073741825, 64(%rax)
.L180:
	movq	%r13, %rax
	leaq	8(%r13), %r13
	movq	(%rax), %rax
	movq	256(%rsp), %rdi
	movq	%rdi, 248(%rsp)
	movq	272(%rsp), %rsi
	movq	%rsi, 280(%rsp)
	movq	240(%rsp), %r14
	movq	224(%rsp), %rdi
	movq	%rdi, 232(%rsp)
	jmp	.L428
.L359:
	movq	%r13, %rax
	movq	0(%r13), %rdx
	leaq	16(%r13), %r13
	movq	8(%rax), %rax
	movq	8(%rdx), %rcx
	movq	(%rdx), %rdx
	movq	%rdx, (%rax)
	movq	%rcx, 8(%rax)
.L358:
	movq	%r13, %rax
	movq	0(%r13), %rdx
	leaq	16(%r13), %r13
	movq	8(%rax), %rax
	movq	8(%rdx), %rcx
	movq	(%rdx), %rdx
	movq	%rdx, (%rax)
	movq	%rcx, 8(%rax)
.L5:
	movq	%r13, %rax
	movq	0(%r13), %rdx
	movq	8(%r13), %r12
	movq	8(%rdx), %rcx
	movq	(%rdx), %rdx
	movq	%rdx, (%r12)
	movq	%rcx, 8(%r12)
	leaq	24(%r13), %r13
	addq	$16, %rax
	movq	(%rax), %rax
	movq	256(%rsp), %rsi
	movq	%rsi, 248(%rsp)
	movq	272(%rsp), %rdi
	movq	%rdi, 280(%rsp)
	movq	240(%rsp), %r14
	movq	224(%rsp), %rsi
	movq	%rsi, 232(%rsp)
	jmp	.L428
.L361:
	movq	%r13, %rax
	movq	240(%rsp), %rdx
	subq	0(%r13), %rdx
	leaq	16(%r13), %r13
	movq	240(%rsp), %rsi
	subq	8(%rax), %rsi
	movq	8(%rdx), %rcx
	movq	(%rdx), %rdx
	movq	%rdx, (%rsi)
	movq	%rcx, 8(%rsi)
.L360:
	movq	%r13, %rax
	movq	240(%rsp), %rdx
	subq	0(%r13), %rdx
	leaq	16(%r13), %r13
	movq	240(%rsp), %rdi
	subq	8(%rax), %rdi
	movq	8(%rdx), %rcx
	movq	(%rdx), %rdx
	movq	%rdx, (%rdi)
	movq	%rcx, 8(%rdi)
.L289:
	movq	%r13, %rax
	movq	240(%rsp), %rdx
	subq	0(%r13), %rdx
	movq	240(%rsp), %r12
	subq	8(%r13), %r12
	movq	8(%rdx), %rcx
	movq	(%rdx), %rdx
	movq	%rdx, (%r12)
	movq	%rcx, 8(%r12)
	leaq	24(%r13), %r13
	addq	$16, %rax
	movq	(%rax), %rax
	movq	256(%rsp), %rdi
	movq	%rdi, 248(%rsp)
	movq	272(%rsp), %rsi
	movq	%rsi, 280(%rsp)
	movq	240(%rsp), %r14
	movq	224(%rsp), %rdi
	movq	%rdi, 232(%rsp)
	jmp	.L428
.L362:
	movq	%r13, %rdx
	movq	0(%r13), %rax
	movq	8(%r13), %r12
	movq	(%rax), %rcx
	movq	(%r12), %rsi
	movq	%rsi, (%rax)
	movq	%rcx, (%r12)
	movq	8(%rax), %rcx
	movq	8(%r12), %rsi
	movq	%rsi, 8(%rax)
	movq	%rcx, 8(%r12)
	leaq	24(%r13), %r13
	movq	16(%rdx), %rax
	movq	256(%rsp), %rsi
	movq	%rsi, 248(%rsp)
	movq	272(%rsp), %rdi
	movq	%rdi, 280(%rsp)
	movq	240(%rsp), %r14
	movq	224(%rsp), %rsi
	movq	%rsi, 232(%rsp)
	jmp	.L428
.L363:
	movq	%r13, %rax
	movq	0(%r13), %rdx
	movq	8(%r13), %r12
	movq	(%r12), %rcx
	movq	8(%r12), %rbx
	movq	%rcx, (%rdx)
	movq	%rbx, 8(%rdx)
	movq	16(%r13), %rdx
	movq	8(%rdx), %rcx
	movq	(%rdx), %rdx
	movq	%rdx, (%r12)
	movq	%rcx, 8(%r12)
	leaq	32(%r13), %r13
	addq	$24, %rax
	movq	(%rax), %rax
	movq	256(%rsp), %rdi
	movq	%rdi, 248(%rsp)
	movq	272(%rsp), %rsi
	movq	%rsi, 280(%rsp)
	movq	240(%rsp), %r14
	movq	224(%rsp), %rdi
	movq	%rdi, 232(%rsp)
	jmp	.L428
.L364:
	movq	0(%r13), %rcx
	movq	8(%r13), %rdx
	movq	(%rdx), %rsi
	movq	8(%rdx), %rdi
	movq	%rsi, (%rcx)
	movq	%rdi, 8(%rcx)
	leaq	16(%r13), %rcx
	movq	16(%r13), %rax
	movq	(%rax), %rsi
	movq	8(%rax), %rdi
	movq	%rsi, (%rdx)
	movq	%rdi, 8(%rdx)
	leaq	8(%rcx), %rdx
	movq	8(%rcx), %r12
	movq	(%r12), %rcx
	movq	8(%r12), %rbx
	movq	%rcx, (%rax)
	movq	%rbx, 8(%rax)
	leaq	16(%rdx), %r13
	movq	8(%rdx), %rax
	movq	256(%rsp), %rsi
	movq	%rsi, 248(%rsp)
	movq	272(%rsp), %rdi
	movq	%rdi, 280(%rsp)
	movq	240(%rsp), %r14
	movq	224(%rsp), %rsi
	movq	%rsi, 232(%rsp)
	jmp	.L428
.L365:
	movq	0(%r13), %rcx
	movq	8(%r13), %rdx
	movq	(%rdx), %rsi
	movq	8(%rdx), %rdi
	movq	%rsi, (%rcx)
	movq	%rdi, 8(%rcx)
	leaq	16(%r13), %rcx
	movq	16(%r13), %rax
	movq	(%rax), %rsi
	movq	8(%rax), %rdi
	movq	%rsi, (%rdx)
	movq	%rdi, 8(%rdx)
	leaq	8(%rcx), %rdx
	movq	8(%rcx), %r12
	movq	(%r12), %rcx
	movq	8(%r12), %rbx
	movq	%rcx, (%rax)
	movq	%rbx, 8(%rax)
	leaq	8(%rdx), %rax
	movq	8(%rdx), %rdx
	movq	8(%rdx), %rcx
	movq	(%rdx), %rdx
	movq	%rdx, (%r12)
	movq	%rcx, 8(%r12)
	leaq	16(%rax), %r13
	addq	$8, %rax
	movq	(%rax), %rax
	movq	256(%rsp), %rdi
	movq	%rdi, 248(%rsp)
	movq	272(%rsp), %rsi
	movq	%rsi, 280(%rsp)
	movq	240(%rsp), %r14
	movq	224(%rsp), %rdi
	movq	%rdi, 232(%rsp)
	jmp	.L428
.L401:
	movq	%r13, %rdx
	movq	0(%r13), %rax
	movq	(%rax), %rcx
	movq	8(%rax), %rbx
	movq	%rcx, 352(%rsp)
	movq	%rbx, 360(%rsp)
	movq	8(%r13), %r12
	movq	(%r12), %rcx
	movq	8(%r12), %rbx
	movq	%rcx, (%rax)
	movq	%rbx, 8(%rax)
	movq	16(%r13), %rax
	movq	(%rax), %rcx
	movq	8(%rax), %rbx
	movq	%rcx, (%r12)
	movq	%rbx, 8(%r12)
	movq	352(%rsp), %rcx
	movq	360(%rsp), %rbx
	movq	%rcx, (%rax)
	movq	%rbx, 8(%rax)
	leaq	32(%r13), %r13
	movq	24(%rdx), %rax
	movq	256(%rsp), %rsi
	movq	%rsi, 248(%rsp)
	movq	272(%rsp), %rdi
	movq	%rdi, 280(%rsp)
	movq	240(%rsp), %r14
	movq	224(%rsp), %rsi
	movq	%rsi, 232(%rsp)
	jmp	.L428
.L9:
	movq	216(%rsp), %rax
	leaq	-8(%rax), %r14
	movq	240(%rsp), %rdi
	movq	%rdi, -8(%rax)
	movq	%r13, %rax
	leaq	8(%r13), %r13
	movq	%r14, %rsi
	subq	(%rax), %rsi
	movq	%rsi, 216(%rsp)
	movq	%r14, 240(%rsp)
	movq	ec_@GOTPCREL(%rip), %rax
	cmpq	472(%rax), %rsi
	ja	.L6
	movq	%rsi, (%rax)
	movq	%r14, 24(%rax)
	movq	224(%rsp), %rsi
	movq	%rsi, 16(%rax)
	movq	%r13, 72(%rax)
	orl	$1073741824, 64(%rax)
	call	local_ov@PLT
	testl	%eax, %eax
	je	.L745
	movq	256(%rsp), %rax
	movq	%rax, 248(%rsp)
	movq	272(%rsp), %rax
	movq	%rax, 280(%rsp)
	movq	224(%rsp), %rax
	movq	%rax, 232(%rsp)
	jmp	.L411
	.p2align 4,,10
	.p2align 3
.L745:
	movq	ec_@GOTPCREL(%rip), %rax
	andl	$-1073741825, 64(%rax)
	movq	%r14, 240(%rsp)
.L6:
	movq	%r13, %rax
	movq	0(%r13), %rdx
	movq	240(%rsp), %r12
	subq	8(%r13), %r12
	movq	8(%rdx), %rcx
	movq	(%rdx), %rdx
	movq	%rdx, (%r12)
	movq	%rcx, 8(%r12)
	leaq	24(%r13), %r13
	addq	$16, %rax
	movq	(%rax), %rax
	movq	256(%rsp), %rdi
	movq	%rdi, 248(%rsp)
	movq	272(%rsp), %rsi
	movq	%rsi, 280(%rsp)
	movq	240(%rsp), %r14
	movq	224(%rsp), %rdi
	movq	%rdi, 232(%rsp)
	jmp	.L428
.L353:
	movq	%r13, %rdx
	movq	0(%r13), %rdi
	movq	8(%r13), %rax
	leaq	24(%r13), %r13
	movq	240(%rsp), %rsi
	subq	16(%rdx), %rsi
	movq	%rdi, %rcx
	movq	%rsi, %rdx
.L747:
	movq	(%rax), %r8
	movq	8(%rax), %r9
	movq	%r8, (%rdx)
	movq	%r9, 8(%rdx)
	addq	$16, %rax
	subq	$16, %rdx
	subq	$1, %rcx
	jne	.L747
	movq	%rdi, %rax
	salq	$4, %rax
	subq	%rax, %rsi
	movq	%rsi, %r12
	movq	%r13, %rax
	leaq	8(%r13), %r13
	movq	(%rax), %rax
	movq	256(%rsp), %rsi
	movq	%rsi, 248(%rsp)
	movq	272(%rsp), %rdi
	movq	%rdi, 280(%rsp)
	movq	240(%rsp), %r14
	movq	224(%rsp), %rsi
	movq	%rsi, 232(%rsp)
	jmp	.L428
.L357:
	movq	%r13, %rax
	movq	0(%r13), %rdx
	leaq	16(%r13), %r13
	movq	240(%rsp), %rdi
	subq	8(%rax), %rdi
	movq	8(%rdx), %rcx
	movq	(%rdx), %rdx
	movq	%rdx, (%rdi)
	movq	%rcx, 8(%rdi)
.L356:
	movq	%r13, %rax
	movq	0(%r13), %rcx
	movq	240(%rsp), %rdx
	subq	8(%r13), %rdx
	movq	8(%rcx), %rbx
	movq	(%rcx), %rcx
	movq	%rcx, (%rdx)
	movq	%rbx, 8(%rdx)
	movq	16(%r13), %rdx
	movq	240(%rsp), %r12
	subq	24(%r13), %r12
	movq	8(%rdx), %rcx
	movq	(%rdx), %rdx
	movq	%rdx, (%r12)
	movq	%rcx, 8(%r12)
	leaq	40(%r13), %r13
	addq	$32, %rax
	movq	(%rax), %rax
	movq	256(%rsp), %rdi
	movq	%rdi, 248(%rsp)
	movq	272(%rsp), %rsi
	movq	%rsi, 280(%rsp)
	movq	240(%rsp), %r14
	movq	224(%rsp), %rdi
	movq	%rdi, 232(%rsp)
	jmp	.L428
.L355:
	movq	%r13, %rax
	movq	240(%rsp), %rdx
	subq	0(%r13), %rdx
	leaq	16(%r13), %r13
	movq	8(%rax), %rax
	movq	8(%rdx), %rcx
	movq	(%rdx), %rdx
	movq	%rdx, (%rax)
	movq	%rcx, 8(%rax)
.L354:
	movq	%r13, %rax
	movq	240(%rsp), %rdx
	subq	0(%r13), %rdx
	leaq	16(%r13), %r13
	movq	8(%rax), %rax
	movq	8(%rdx), %rcx
	movq	(%rdx), %rdx
	movq	%rdx, (%rax)
	movq	%rcx, 8(%rax)
.L7:
	movq	%r13, %rax
	movq	240(%rsp), %rdx
	subq	0(%r13), %rdx
	movq	8(%r13), %r12
	movq	8(%rdx), %rcx
	movq	(%rdx), %rdx
	movq	%rdx, (%r12)
	movq	%rcx, 8(%r12)
	leaq	24(%r13), %r13
	addq	$16, %rax
	movq	(%rax), %rax
	movq	256(%rsp), %rsi
	movq	%rsi, 248(%rsp)
	movq	272(%rsp), %rdi
	movq	%rdi, 280(%rsp)
	movq	240(%rsp), %r14
	movq	224(%rsp), %rsi
	movq	%rsi, 232(%rsp)
	jmp	.L428
.L352:
	movq	%r13, %rdx
	movq	0(%r13), %rdi
	movq	240(%rsp), %rax
	subq	8(%r13), %rax
	leaq	24(%r13), %r13
	movq	16(%rdx), %rsi
	movq	%rdi, %rcx
	movq	%rsi, %rdx
.L749:
	movq	(%rax), %r8
	movq	8(%rax), %r9
	movq	%r8, (%rdx)
	movq	%r9, 8(%rdx)
	subq	$16, %rax
	addq	$16, %rdx
	subq	$1, %rcx
	jne	.L749
	movq	%rdi, %rax
	salq	$4, %rax
	leaq	(%rsi,%rax), %r12
	movq	%r13, %rax
	leaq	8(%r13), %r13
	movq	(%rax), %rax
	movq	256(%rsp), %rdi
	movq	%rdi, 248(%rsp)
	movq	272(%rsp), %rsi
	movq	%rsi, 280(%rsp)
	movq	240(%rsp), %r14
	movq	224(%rsp), %rdi
	movq	%rdi, 232(%rsp)
	jmp	.L428
.L8:
	movq	%r13, %rax
	movq	216(%rsp), %rdx
	addq	0(%r13), %rdx
	movq	8(%r13), %r12
	movq	8(%rdx), %rcx
	movq	(%rdx), %rdx
	movq	%rdx, (%r12)
	movq	%rcx, 8(%r12)
	leaq	24(%r13), %r13
	addq	$16, %rax
	movq	(%rax), %rax
	movq	256(%rsp), %rsi
	movq	%rsi, 248(%rsp)
	movq	272(%rsp), %rdi
	movq	%rdi, 280(%rsp)
	movq	240(%rsp), %r14
	movq	224(%rsp), %rsi
	movq	%rsi, 232(%rsp)
	jmp	.L428
.L10:
	movq	%r13, %rax
	movq	0(%r13), %rbp
	leaq	16(%r13), %r13
	movq	8(%rax), %r12
	movq	256(%rsp), %rax
	movq	%rax, 248(%rsp)
	movq	272(%rsp), %rax
	movq	%rax, 280(%rsp)
	movq	240(%rsp), %r14
	movq	224(%rsp), %rax
	movq	%rax, 232(%rsp)
	jmp	.L496
.L11:
	movq	%r13, %rax
	movq	0(%r13), %rbp
	leaq	16(%r13), %r13
	movq	240(%rsp), %r12
	subq	8(%rax), %r12
	movq	256(%rsp), %rax
	movq	%rax, 248(%rsp)
	movq	272(%rsp), %rax
	movq	%rax, 280(%rsp)
	movq	240(%rsp), %r14
	movq	224(%rsp), %rax
	movq	%rax, 232(%rsp)
	jmp	.L496
.L12:
	movq	%r13, %rax
	movq	0(%r13), %rbp
	leaq	16(%r13), %r13
	movq	216(%rsp), %r12
	addq	8(%rax), %r12
	movq	256(%rsp), %rax
	movq	%rax, 248(%rsp)
	movq	272(%rsp), %rax
	movq	%rax, 280(%rsp)
	movq	240(%rsp), %r14
	movq	224(%rsp), %rax
	movq	%rax, 232(%rsp)
	jmp	.L496
.L290:
	movq	%r13, %rax
	movq	240(%rsp), %rbp
	subq	0(%r13), %rbp
	leaq	16(%r13), %r13
	movq	240(%rsp), %r12
	subq	8(%rax), %r12
	movq	256(%rsp), %rax
	movq	%rax, 248(%rsp)
	movq	272(%rsp), %rax
	movq	%rax, 280(%rsp)
	movq	240(%rsp), %r14
	movq	224(%rsp), %rax
	movq	%rax, 232(%rsp)
	jmp	.L496
.L185:
.L183:
	movq	%r13, %rax
	leaq	8(%r13), %r13
	movq	(%rax), %rbx
.L750:
	movq	8(%rbx), %rax
	testq	%rax, %rax
	jns	.L756
	cmpq	(%rbx), %rbx
	je	.L752
.L753:
	movq	(%rbx), %rbx
	movq	8(%rbx), %rax
	testq	%rax, %rax
	jns	.L756
	cmpq	%rbx, (%rbx)
	jne	.L753
	jmp	.L752
.L2684:
	cmpq	272(%rsp), %rbx
	jae	.L2564
	cmpq	256(%rsp), %rbx
	jae	.L754
.L2564:
	movq	ec_@GOTPCREL(%rip), %rax
	movq	8(%rax), %rdx
	leaq	-8(%rdx), %rcx
	movq	%rcx, 8(%rax)
	movq	%rbx, -8(%rdx)
	movq	456(%rax), %rdi
	cmpq	%rdi, 8(%rax)
	ja	.L754
	movq	%rax, %rbp
	movq	216(%rsp), %rax
	movq	%rax, 0(%rbp)
	movq	240(%rsp), %rax
	movq	%rax, 24(%rbp)
	movq	224(%rsp), %rax
	movq	%rax, 16(%rbp)
	movq	%r13, 72(%rbp)
	orl	$1073741824, 64(%rbp)
	call	trail_ov@PLT
	andl	$-1073741825, 64(%rbp)
.L754:
	movq	%r13, %rax
	movq	0(%r13), %rdx
	movq	%rdx, (%rbx)
	movq	8(%r13), %rdx
	movq	%rdx, 8(%rbx)
	leaq	24(%r13), %r13
	addq	$16, %rax
	movq	(%rax), %rax
	movq	256(%rsp), %rsi
	movq	%rsi, 248(%rsp)
	movq	272(%rsp), %rdi
	movq	%rdi, 280(%rsp)
	movq	240(%rsp), %r14
	movq	224(%rsp), %rsi
	movq	%rsi, 232(%rsp)
	jmp	.L428
.L2614:
	movq	%r13, %rax
	movq	0(%r13), %r12
	leaq	16(%r13), %r13
	movq	8(%rax), %r14
	movq	224(%rsp), %r15
	jmp	.L583
.L756:
	movl	%eax, %ecx
	cmpb	%al, 8(%r13)
	jne	.L1440
	cmpb	$7, %al
	jle	.L757
	movq	0(%r13), %rax
	cmpq	%rax, (%rbx)
	je	.L758
	cmpb	$9, %cl
	jne	.L1440
	jmp	.L758
.L757:
	movq	ec_@GOTPCREL(%rip), %rbp
	movq	216(%rsp), %rdi
	movq	%rdi, 0(%rbp)
	movq	240(%rsp), %rsi
	movq	%rsi, 24(%rbp)
	movq	224(%rsp), %rdi
	movq	%rdi, 16(%rbp)
	movq	%r13, 72(%rbp)
	orl	$1073741824, 64(%rbp)
	movsbl	%al, %eax
	cltq
	leaq	(%rax,%rax,4), %rdx
	leaq	(%rax,%rdx,8), %rax
	salq	$4, %rax
	movq	0(%r13), %rsi
	movq	(%rbx), %rdi
	call	*5104(%rbp,%rax)
	andl	$-1073741825, 64(%rbp)
	testl	%eax, %eax
	je	.L1440
.L758:
	movq	%r13, %rax
	leaq	24(%r13), %r13
	movq	16(%rax), %rax
	movq	256(%rsp), %rsi
	movq	%rsi, 248(%rsp)
	movq	272(%rsp), %rdi
	movq	%rdi, 280(%rsp)
	movq	240(%rsp), %r14
	movq	224(%rsp), %rsi
	movq	%rsi, 232(%rsp)
	jmp	.L428
.L27:
.L13:
	movq	%r13, %rdx
	leaq	8(%r13), %r13
	movq	(%rdx), %rbx
	movq	8(%rbx), %rax
	testq	%rax, %rax
	jns	.L759
	cmpq	(%rbx), %rbx
	je	.L759
.L760:
	movq	(%rbx), %rbx
	movq	8(%rbx), %rax
	testq	%rax, %rax
	jns	.L759
	cmpq	%rbx, (%rbx)
	jne	.L760
.L759:
	cmpb	$-1, %al
	jne	.L761
	cmpq	272(%rsp), %rbx
	jae	.L2565
	cmpq	256(%rsp), %rbx
	jae	.L762
.L2565:
	movq	ec_@GOTPCREL(%rip), %rax
	movq	8(%rax), %rdx
	leaq	-8(%rdx), %rcx
	movq	%rcx, 8(%rax)
	movq	%rbx, -8(%rdx)
	movq	456(%rax), %rdi
	cmpq	%rdi, 8(%rax)
	ja	.L762
	movq	%rax, %rbp
	movq	216(%rsp), %rax
	movq	%rax, 0(%rbp)
	movq	240(%rsp), %rax
	movq	%rax, 24(%rbp)
	movq	224(%rsp), %rax
	movq	%rax, 16(%rbp)
	movq	%r13, 72(%rbp)
	orl	$1073741824, 64(%rbp)
	call	trail_ov@PLT
	andl	$-1073741825, 64(%rbp)
.L762:
	movq	$9, 8(%rbx)
	movq	%r13, %rax
	leaq	8(%r13), %r13
	movq	(%rax), %rax
	movq	256(%rsp), %rsi
	movq	%rsi, 248(%rsp)
	movq	272(%rsp), %rdi
	movq	%rdi, 280(%rsp)
	movq	240(%rsp), %r14
	movq	224(%rsp), %rsi
	movq	%rsi, 232(%rsp)
	jmp	.L428
.L761:
	cmpb	$9, %al
	jne	.L764
	leaq	16(%rdx), %r13
	movq	8(%rdx), %rax
	movq	256(%rsp), %rdi
	movq	%rdi, 248(%rsp)
	movq	272(%rsp), %rsi
	movq	%rsi, 280(%rsp)
	movq	240(%rsp), %r14
	movq	224(%rsp), %rdi
	movq	%rdi, 232(%rsp)
	jmp	.L428
.L764:
	testq	%rax, %rax
	jns	.L1440
	jmp	.L2641
.L379:
	movq	%r13, %rdx
	leaq	8(%r13), %r13
	movq	(%rdx), %rbx
	movq	8(%rbx), %rax
	testq	%rax, %rax
	jns	.L765
	cmpq	(%rbx), %rbx
	je	.L765
.L766:
	movq	(%rbx), %rbx
	movq	8(%rbx), %rax
	testq	%rax, %rax
	jns	.L765
	cmpq	%rbx, (%rbx)
	jne	.L766
.L765:
	cmpb	$-1, %al
	jne	.L767
	cmpq	272(%rsp), %rbx
	jae	.L2566
	cmpq	256(%rsp), %rbx
	jae	.L768
.L2566:
	movq	ec_@GOTPCREL(%rip), %rax
	movq	8(%rax), %rdx
	leaq	-8(%rdx), %rcx
	movq	%rcx, 8(%rax)
	movq	%rbx, -8(%rdx)
	movq	456(%rax), %rsi
	cmpq	%rsi, 8(%rax)
	ja	.L768
	movq	%rax, %rbp
	movq	216(%rsp), %rax
	movq	%rax, 0(%rbp)
	movq	240(%rsp), %rax
	movq	%rax, 24(%rbp)
	movq	224(%rsp), %rax
	movq	%rax, 16(%rbp)
	movq	%r13, 72(%rbp)
	orl	$1073741824, 64(%rbp)
	call	trail_ov@PLT
	andl	$-1073741825, 64(%rbp)
.L768:
	movq	%r13, %rax
	leaq	8(%r13), %r13
	movq	(%rax), %rax
	movq	%rax, (%rbx)
	movq	$10, 8(%rbx)
	jmp	.L14
.L767:
	cmpb	$10, %al
	je	.L770
	testq	%rax, %rax
	jns	.L1440
	leaq	16(%rdx), %r13
	movq	8(%rdx), %r12
	movq	224(%rsp), %r15
	movl	$10, %r14d
	jmp	.L583
	.p2align 4,,10
	.p2align 3
.L770:
	leaq	16(%rdx), %r13
	movq	8(%rdx), %rax
	cmpq	%rax, (%rbx)
	jne	.L1440
	jmp	.L14
	.p2align 4,,10
	.p2align 3
.L28:
.L14:
	movq	%r13, %rdx
	leaq	8(%r13), %r13
	movq	(%rdx), %rbx
	movq	8(%rbx), %rax
	testq	%rax, %rax
	jns	.L771
	cmpq	(%rbx), %rbx
	je	.L771
.L772:
	movq	(%rbx), %rbx
	movq	8(%rbx), %rax
	testq	%rax, %rax
	jns	.L771
	cmpq	%rbx, (%rbx)
	jne	.L772
.L771:
	cmpb	$-1, %al
	jne	.L773
	cmpq	272(%rsp), %rbx
	jae	.L2567
	cmpq	256(%rsp), %rbx
	jae	.L774
.L2567:
	movq	ec_@GOTPCREL(%rip), %rax
	movq	8(%rax), %rdx
	leaq	-8(%rdx), %rcx
	movq	%rcx, 8(%rax)
	movq	%rbx, -8(%rdx)
	movq	456(%rax), %rdi
	cmpq	%rdi, 8(%rax)
	ja	.L774
	movq	%rax, %rbp
	movq	216(%rsp), %rax
	movq	%rax, 0(%rbp)
	movq	240(%rsp), %rax
	movq	%rax, 24(%rbp)
	movq	224(%rsp), %rax
	movq	%rax, 16(%rbp)
	movq	%r13, 72(%rbp)
	orl	$1073741824, 64(%rbp)
	call	trail_ov@PLT
	andl	$-1073741825, 64(%rbp)
.L774:
	movq	%r13, %rax
	leaq	8(%r13), %r13
	movq	(%rax), %rax
	movq	%rax, (%rbx)
	movq	$10, 8(%rbx)
	jmp	.L776
.L773:
	cmpb	$10, %al
	je	.L777
	testq	%rax, %rax
	jns	.L1440
	leaq	16(%rdx), %r13
	movq	8(%rdx), %r12
	movq	224(%rsp), %r15
	movl	$10, %r14d
	jmp	.L583
.L777:
	leaq	16(%rdx), %r13
	movq	8(%rdx), %rax
	cmpq	%rax, (%rbx)
	jne	.L1440
.L776:
	movq	%r13, %rax
	leaq	8(%r13), %r13
	movq	(%rax), %rax
	movq	256(%rsp), %rsi
	movq	%rsi, 248(%rsp)
	movq	272(%rsp), %rdi
	movq	%rdi, 280(%rsp)
	movq	240(%rsp), %r14
	movq	224(%rsp), %rsi
	movq	%rsi, 232(%rsp)
	jmp	.L428
.L378:
	movq	%r13, %rdx
	leaq	8(%r13), %r13
	movq	(%rdx), %rbx
	movq	8(%rbx), %rax
	testq	%rax, %rax
	jns	.L778
	cmpq	(%rbx), %rbx
	je	.L778
.L779:
	movq	(%rbx), %rbx
	movq	8(%rbx), %rax
	testq	%rax, %rax
	jns	.L778
	cmpq	%rbx, (%rbx)
	jne	.L779
.L778:
	cmpb	$-1, %al
	jne	.L780
	cmpq	272(%rsp), %rbx
	jae	.L2568
	cmpq	256(%rsp), %rbx
	jae	.L781
.L2568:
	movq	ec_@GOTPCREL(%rip), %rax
	movq	8(%rax), %rdx
	leaq	-8(%rdx), %rcx
	movq	%rcx, 8(%rax)
	movq	%rbx, -8(%rdx)
	movq	456(%rax), %rdi
	cmpq	%rdi, 8(%rax)
	ja	.L781
	movq	%rax, %rbp
	movq	216(%rsp), %rax
	movq	%rax, 0(%rbp)
	movq	240(%rsp), %rax
	movq	%rax, 24(%rbp)
	movq	224(%rsp), %rax
	movq	%rax, 16(%rbp)
	movq	%r13, 72(%rbp)
	orl	$1073741824, 64(%rbp)
	call	trail_ov@PLT
	andl	$-1073741825, 64(%rbp)
.L781:
	movq	%r13, %rax
	leaq	8(%r13), %r13
	movq	(%rax), %rax
	movq	%rax, (%rbx)
	movq	$11, 8(%rbx)
	jmp	.L16
.L780:
	cmpb	$11, %al
	je	.L783
	testq	%rax, %rax
	jns	.L1440
	leaq	16(%rdx), %r13
	movq	8(%rdx), %r12
	movq	224(%rsp), %r15
	movl	$11, %r14d
	jmp	.L583
	.p2align 4,,10
	.p2align 3
.L783:
	leaq	16(%rdx), %r13
	movq	8(%rdx), %rax
	cmpq	%rax, (%rbx)
	jne	.L1440
	jmp	.L16
	.p2align 4,,10
	.p2align 3
.L30:
.L16:
	movq	%r13, %rdx
	leaq	8(%r13), %r13
	movq	(%rdx), %rbx
	movq	8(%rbx), %rax
	testq	%rax, %rax
	jns	.L784
	cmpq	(%rbx), %rbx
	je	.L784
.L785:
	movq	(%rbx), %rbx
	movq	8(%rbx), %rax
	testq	%rax, %rax
	jns	.L784
	cmpq	%rbx, (%rbx)
	jne	.L785
.L784:
	cmpb	$-1, %al
	jne	.L786
	cmpq	272(%rsp), %rbx
	jae	.L2569
	cmpq	256(%rsp), %rbx
	jae	.L787
.L2569:
	movq	ec_@GOTPCREL(%rip), %rax
	movq	8(%rax), %rdx
	leaq	-8(%rdx), %rcx
	movq	%rcx, 8(%rax)
	movq	%rbx, -8(%rdx)
	movq	456(%rax), %rsi
	cmpq	%rsi, 8(%rax)
	ja	.L787
	movq	%rax, %rbp
	movq	216(%rsp), %rax
	movq	%rax, 0(%rbp)
	movq	240(%rsp), %rax
	movq	%rax, 24(%rbp)
	movq	224(%rsp), %rax
	movq	%rax, 16(%rbp)
	movq	%r13, 72(%rbp)
	orl	$1073741824, 64(%rbp)
	call	trail_ov@PLT
	andl	$-1073741825, 64(%rbp)
.L787:
	movq	%r13, %rax
	leaq	8(%r13), %r13
	movq	(%rax), %rax
	movq	%rax, (%rbx)
	movq	$11, 8(%rbx)
	jmp	.L789
.L786:
	cmpb	$11, %al
	je	.L790
	testq	%rax, %rax
	jns	.L1440
	leaq	16(%rdx), %r13
	movq	8(%rdx), %r12
	movq	224(%rsp), %r15
	movl	$11, %r14d
	jmp	.L583
.L790:
	leaq	16(%rdx), %r13
	movq	8(%rdx), %rax
	cmpq	%rax, (%rbx)
	jne	.L1440
.L789:
	movq	%r13, %rax
	leaq	8(%r13), %r13
	movq	(%rax), %rax
	movq	256(%rsp), %rdi
	movq	%rdi, 248(%rsp)
	movq	272(%rsp), %rsi
	movq	%rsi, 280(%rsp)
	movq	240(%rsp), %r14
	movq	224(%rsp), %rdi
	movq	%rdi, 232(%rsp)
	jmp	.L428
.L31:
.L17:
	movq	%r13, %rdx
	leaq	8(%r13), %r13
	movq	(%rdx), %rbx
	movq	8(%rbx), %rax
	testq	%rax, %rax
	jns	.L791
	cmpq	(%rbx), %rbx
	je	.L791
.L792:
	movq	(%rbx), %rbx
	movq	8(%rbx), %rax
	testq	%rax, %rax
	jns	.L791
	cmpq	%rbx, (%rbx)
	jne	.L792
.L791:
	cmpb	$-1, %al
	jne	.L793
	cmpq	272(%rsp), %rbx
	jae	.L2570
	cmpq	256(%rsp), %rbx
	jae	.L794
.L2570:
	movq	ec_@GOTPCREL(%rip), %rax
	movq	8(%rax), %rdx
	leaq	-8(%rdx), %rcx
	movq	%rcx, 8(%rax)
	movq	%rbx, -8(%rdx)
	movq	456(%rax), %rsi
	cmpq	%rsi, 8(%rax)
	ja	.L794
	movq	%rax, %rbp
	movq	216(%rsp), %rax
	movq	%rax, 0(%rbp)
	movq	240(%rsp), %rax
	movq	%rax, 24(%rbp)
	movq	224(%rsp), %rax
	movq	%rax, 16(%rbp)
	movq	%r13, 72(%rbp)
	orl	$1073741824, 64(%rbp)
	call	trail_ov@PLT
	andl	$-1073741825, 64(%rbp)
.L794:
	movq	%r13, %rax
	leaq	8(%r13), %r13
	movq	(%rax), %rax
	movq	%rax, (%rbx)
	movq	$4, 8(%rbx)
	jmp	.L796
.L793:
	cmpb	$4, %al
	jne	.L797
	movq	(%rbx), %rax
	leaq	16(%rdx), %r13
	movq	8(%rdx), %r12
	movq	(%rax), %rdx
	movslq	%edx, %rsi
	movl	%edx, %ecx
	cmpq	(%r12), %rsi
	jne	.L798
	cmpb	$19, 8(%rax)
	jne	.L799
	addq	$16, %rax
	jmp	.L800
.L799:
	movq	16(%rax), %rax
.L800:
	cmpb	$19, 8(%r12)
	jne	.L801
	addq	$16, %r12
.L803:
	leal	-1(%rdx), %ecx
	testl	%edx, %edx
	je	.L798
	movzbl	(%r12), %edi
	cmpb	%dil, (%rax)
	jne	.L798
	subl	$2, %edx
	jmp	.L802
.L801:
	movq	16(%r12), %r12
	jmp	.L803
	.p2align 4,,10
	.p2align 3
.L804:
	subl	$1, %edx
	movzbl	(%r12), %esi
	cmpb	%sil, (%rax)
	jne	.L798
.L802:
	addq	$1, %rax
	addq	$1, %r12
	movl	%edx, %ecx
	cmpl	$-1, %edx
	jne	.L804
.L798:
	testl	%ecx, %ecx
	jns	.L1440
	jmp	.L796
	.p2align 4,,10
	.p2align 3
.L797:
	testq	%rax, %rax
	jns	.L1440
	leaq	16(%rdx), %r13
	movq	8(%rdx), %r12
	movq	224(%rsp), %r15
	movl	$4, %r14d
	jmp	.L583
.L796:
	movq	%r13, %rax
	leaq	8(%r13), %r13
	movq	(%rax), %rax
	movq	256(%rsp), %rdi
	movq	%rdi, 248(%rsp)
	movq	272(%rsp), %rsi
	movq	%rsi, 280(%rsp)
	movq	240(%rsp), %r14
	movq	224(%rsp), %rdi
	movq	%rdi, 232(%rsp)
	jmp	.L428
.L380:
	movq	%r13, %rdx
	leaq	8(%r13), %r13
	movq	(%rdx), %rbx
	movq	8(%rbx), %rax
	testq	%rax, %rax
	jns	.L805
	cmpq	(%rbx), %rbx
	je	.L805
.L806:
	movq	(%rbx), %rbx
	movq	8(%rbx), %rax
	testq	%rax, %rax
	jns	.L805
	cmpq	%rbx, (%rbx)
	jne	.L806
.L805:
	cmpb	$-1, %al
	jne	.L807
	cmpq	272(%rsp), %rbx
	jae	.L2571
	cmpq	256(%rsp), %rbx
	jae	.L808
.L2571:
	movq	ec_@GOTPCREL(%rip), %rax
	movq	8(%rax), %rdx
	leaq	-8(%rdx), %rcx
	movq	%rcx, 8(%rax)
	movq	%rbx, -8(%rdx)
	movq	456(%rax), %rsi
	cmpq	%rsi, 8(%rax)
	ja	.L808
	movq	%rax, %rbp
	movq	216(%rsp), %rax
	movq	%rax, 0(%rbp)
	movq	240(%rsp), %rax
	movq	%rax, 24(%rbp)
	movq	224(%rsp), %rax
	movq	%rax, 16(%rbp)
	movq	%r13, 72(%rbp)
	orl	$1073741824, 64(%rbp)
	call	trail_ov@PLT
	andl	$-1073741825, 64(%rbp)
.L808:
	movq	%r13, %rax
	leaq	8(%r13), %r13
	movq	(%rax), %rax
	movq	%rax, (%rbx)
	movq	$11, 8(%rbx)
	jmp	.L810
.L807:
	cmpb	$11, %al
	je	.L811
	testq	%rax, %rax
	jns	.L1440
	leaq	16(%rdx), %r13
	movq	8(%rdx), %r12
	movq	224(%rsp), %r15
	movl	$11, %r14d
	jmp	.L583
	.p2align 4,,10
	.p2align 3
.L811:
	leaq	16(%rdx), %r13
	movq	8(%rdx), %rax
	cmpq	%rax, (%rbx)
	jne	.L1440
.L810:
	movq	%r13, %rax
	leaq	8(%r13), %r13
	movq	(%rax), %rbx
	movq	8(%rbx), %rdx
	testq	%rdx, %rdx
	jns	.L812
	cmpq	(%rbx), %rbx
	je	.L812
.L813:
	movq	(%rbx), %rbx
	movq	8(%rbx), %rdx
	testq	%rdx, %rdx
	jns	.L812
	cmpq	%rbx, (%rbx)
	jne	.L813
.L812:
	cmpb	$-1, %dl
	jne	.L814
	cmpq	272(%rsp), %rbx
	jae	.L2572
	cmpq	256(%rsp), %rbx
	jae	.L815
.L2572:
	movq	ec_@GOTPCREL(%rip), %rax
	movq	8(%rax), %rdx
	leaq	-8(%rdx), %rcx
	movq	%rcx, 8(%rax)
	movq	%rbx, -8(%rdx)
	movq	456(%rax), %rdi
	cmpq	%rdi, 8(%rax)
	ja	.L815
	movq	%rax, %rbp
	movq	216(%rsp), %rax
	movq	%rax, 0(%rbp)
	movq	240(%rsp), %rax
	movq	%rax, 24(%rbp)
	movq	224(%rsp), %rax
	movq	%rax, 16(%rbp)
	movq	%r13, 72(%rbp)
	orl	$1073741824, 64(%rbp)
	call	trail_ov@PLT
	andl	$-1073741825, 64(%rbp)
.L815:
	movq	%r13, %rax
	leaq	8(%r13), %r13
	movq	(%rax), %rax
	movq	%rax, (%rbx)
	movq	$10, 8(%rbx)
	jmp	.L817
	.p2align 4,,10
	.p2align 3
.L814:
	cmpb	$10, %dl
	je	.L818
	testq	%rdx, %rdx
	jns	.L1440
	leaq	16(%rax), %r13
	movq	8(%rax), %r12
	movq	224(%rsp), %r15
	movl	$10, %r14d
	jmp	.L583
.L818:
	leaq	16(%rax), %r13
	movq	8(%rax), %rax
	cmpq	%rax, (%rbx)
	jne	.L1440
.L817:
	movq	%r13, %rax
	leaq	8(%r13), %r13
	movq	(%rax), %rax
	movq	256(%rsp), %rsi
	movq	%rsi, 248(%rsp)
	movq	272(%rsp), %rdi
	movq	%rdi, 280(%rsp)
	movq	240(%rsp), %r14
	movq	224(%rsp), %rsi
	movq	%rsi, 232(%rsp)
	jmp	.L428
	.p2align 4,,10
	.p2align 3
.L240:
	movq	%r13, %rax
	movq	0(%r13), %rbx
	leaq	16(%r13), %r13
	movq	8(%rax), %rdx
	jmp	.L819
	.p2align 4,,10
	.p2align 3
.L943:
	movq	(%rbx), %rbx
	movq	8(%rbx), %rax
	testq	%rax, %rax
	jns	.L820
	cmpq	%rbx, (%rbx)
	jne	.L943
	jmp	.L822
.L2685:
	movq	%rbp, 232(%rsp)
.L2091:
	cmpq	216(%rsp), %rbx
	jb	.L823
	movq	ec_@GOTPCREL(%rip), %rax
	movq	$0, 208(%rax)
	jmp	.L824
.L823:
	movq	ec_@GOTPCREL(%rip), %rax
	movq	%rbx, 208(%rax)
.L824:
	movq	264(%rsp), %rax
	movq	%rax, (%rax)
	movq	%rdx, 8(%rax)
	cmpq	272(%rsp), %rbx
	jae	.L2573
	cmpq	256(%rsp), %rbx
	jae	.L825
.L2573:
	movq	ec_@GOTPCREL(%rip), %rax
	movq	8(%rax), %rdx
	leaq	-8(%rdx), %rcx
	movq	%rcx, 8(%rax)
	movq	%rbx, -8(%rdx)
	movq	456(%rax), %rdi
	cmpq	%rdi, 8(%rax)
	ja	.L825
	movq	%rax, %rbp
	movq	216(%rsp), %rax
	movq	%rax, 0(%rbp)
	movq	240(%rsp), %rax
	movq	%rax, 24(%rbp)
	movq	232(%rsp), %rax
	movq	%rax, 16(%rbp)
	movq	%r13, 72(%rbp)
	orl	$1073741824, 64(%rbp)
	call	trail_ov@PLT
	andl	$-1073741825, 64(%rbp)
.L825:
	movq	264(%rsp), %rax
	movq	%rax, (%rbx)
	movabsq	$-9223372036854775553, %rax
	movq	%rax, 8(%rbx)
	jmp	.L827
.L2616:
	movq	ec_@GOTPCREL(%rip), %rbp
	movq	%rbx, 208(%rbp)
	movq	224(%rsp), %rax
	movq	%rax, (%rax)
	movq	%rdx, 8(%rax)
	movq	272(%rsp), %rax
	movq	%rax, 32(%rbp)
	movq	256(%rsp), %rax
	movq	%rax, 40(%rbp)
	movq	216(%rsp), %rax
	movq	%rax, 0(%rbp)
	movq	240(%rsp), %rax
	movq	%rax, 24(%rbp)
	movq	232(%rsp), %rax
	movq	%rax, 16(%rbp)
	movq	%r13, 72(%rbp)
	orl	$1073741824, 64(%rbp)
	leaq	96(%rbp), %rdx
	movq	224(%rsp), %rsi
	movq	%rbx, %rdi
	call	bind_c@PLT
	movq	16(%rbp), %rsi
	movq	%rsi, 232(%rsp)
	andl	$-1073741825, 64(%rbp)
	cmpl	$1, %eax
	jne	.L827
	jmp	.L2642
.L2615:
	movq	(%rbx), %rdx
	movq	224(%rsp), %rdi
	movq	%rdx, (%rdi)
	movq	%rax, 8(%rdi)
	leaq	32(%rbp), %rax
	movq	%rax, 232(%rsp)
	movq	ec_@GOTPCREL(%rip), %rax
	movq	232(%rsp), %rdi
	cmpq	448(%rax), %rdi
	jb	.L828
	movq	%rax, %rbx
	movq	216(%rsp), %rax
	movq	%rax, (%rbx)
	movq	240(%rsp), %rax
	movq	%rax, 24(%rbx)
	movq	%rdi, 16(%rbx)
	movq	%r13, 72(%rbx)
	orl	$1073741824, 64(%rbx)
	call	global_ov@PLT
	andl	$-1073741825, 64(%rbx)
.L828:
	movq	264(%rsp), %rax
	movq	%rax, 0(%rbp)
	movq	$0, 8(%rbp)
	movq	ec_@GOTPCREL(%rip), %rax
	movq	96(%rax), %rax
	testq	%rax, %rax
	je	.L829
	movq	%rax, 16(%rbp)
	movq	$0, 24(%rbp)
	jmp	.L830
.L829:
	movq	$9, 24(%rbp)
	movq	ec_@GOTPCREL(%rip), %rax
	movq	$0, 424(%rax)
.L830:
	movq	ec_@GOTPCREL(%rip), %rax
	movq	%rbp, 96(%rax)
.L827:
	movq	%r13, %rax
	leaq	8(%r13), %r13
	movq	(%rax), %rax
	movq	256(%rsp), %rsi
	movq	%rsi, 248(%rsp)
	movq	272(%rsp), %rdi
	movq	%rdi, 280(%rsp)
	movq	240(%rsp), %r14
	jmp	.L428
.L18:
	movq	%r13, %rdx
	leaq	8(%r13), %r13
	movq	(%rdx), %rbx
	movq	8(%rbx), %rax
	testq	%rax, %rax
	jns	.L831
	cmpq	(%rbx), %rbx
	je	.L831
.L832:
	movq	(%rbx), %rbx
	movq	8(%rbx), %rax
	testq	%rax, %rax
	jns	.L831
	cmpq	%rbx, (%rbx)
	jne	.L832
.L831:
	cmpb	$-1, %al
	jne	.L833
	cmpq	%rbx, 216(%rsp)
	ja	.L834
	movq	ec_@GOTPCREL(%rip), %rax
	movq	$0, 208(%rax)
	jmp	.L835
.L834:
	movq	ec_@GOTPCREL(%rip), %rax
	movq	%rbx, 208(%rax)
.L835:
	movq	224(%rsp), %rax
	movq	%rax, 264(%rsp)
	addq	$32, %rax
	movq	%rax, 232(%rsp)
	cmpq	272(%rsp), %rbx
	jae	.L2574
	cmpq	256(%rsp), %rbx
	jae	.L836
.L2574:
	movq	ec_@GOTPCREL(%rip), %rax
	movq	8(%rax), %rdx
	leaq	-8(%rdx), %rcx
	movq	%rcx, 8(%rax)
	movq	%rbx, -8(%rdx)
	movq	456(%rax), %rsi
	cmpq	%rsi, 8(%rax)
	ja	.L836
	movq	%rax, %rbp
	movq	216(%rsp), %rax
	movq	%rax, 0(%rbp)
	movq	240(%rsp), %rax
	movq	%rax, 24(%rbp)
	movq	232(%rsp), %rax
	movq	%rax, 16(%rbp)
	movq	%r13, 72(%rbp)
	orl	$1073741824, 64(%rbp)
	call	trail_ov@PLT
	andl	$-1073741825, 64(%rbp)
.L836:
	movq	264(%rsp), %rax
	movq	%rax, (%rbx)
	movq	$0, 8(%rbx)
	addq	$8, %r13
	jmp	.L838
.L833:
	testb	%al, %al
	jne	.L839
	movq	(%rbx), %rax
	movq	%rax, 264(%rsp)
	movq	8(%rdx), %r13
	movq	224(%rsp), %rax
	movq	%rax, 232(%rsp)
	jmp	.L838
.L839:
	testq	%rax, %rax
	jns	.L1440
	movq	ec_@GOTPCREL(%rip), %rax
	movq	%rbx, 208(%rax)
	movq	224(%rsp), %rax
	movq	%rax, 264(%rsp)
	leaq	32(%rax), %r15
	addq	$8, %r13
	movq	%rax, %r12
	xorl	%r14d, %r14d
	jmp	.L583
	.p2align 4,,10
	.p2align 3
.L838:
	movq	%r13, %rax
	leaq	8(%r13), %r13
	movq	(%rax), %rax
	movq	256(%rsp), %rdi
	movq	%rdi, 248(%rsp)
	movq	272(%rsp), %rsi
	movq	%rsi, 280(%rsp)
	movq	240(%rsp), %r14
	jmp	.L428
.L19:
	movq	%r13, %rdx
	leaq	8(%r13), %r13
	movq	(%rdx), %rbx
	movq	8(%rbx), %rax
	testq	%rax, %rax
	jns	.L840
	cmpq	(%rbx), %rbx
	je	.L840
.L841:
	movq	(%rbx), %rbx
	movq	8(%rbx), %rax
	testq	%rax, %rax
	jns	.L840
	cmpq	%rbx, (%rbx)
	jne	.L841
.L840:
	cmpb	$-1, %al
	jne	.L842
	cmpq	%rbx, 216(%rsp)
	ja	.L843
	movq	ec_@GOTPCREL(%rip), %rax
	movq	$0, 208(%rax)
	jmp	.L844
.L843:
	movq	ec_@GOTPCREL(%rip), %rax
	movq	%rbx, 208(%rax)
.L844:
	movq	%r13, %rax
	leaq	8(%r13), %r13
	movq	(%rax), %rax
	movq	%rax, 288(%rsp)
	movq	224(%rsp), %r14
	movq	(%rax), %rax
	movq	%rax, 224(%rsp)
	addq	$1, %rax
	salq	$4, %rax
	addq	%r14, %rax
	movq	%rax, 232(%rsp)
	cmpq	272(%rsp), %rbx
	jae	.L2575
	cmpq	256(%rsp), %rbx
	jae	.L845
.L2575:
	movq	ec_@GOTPCREL(%rip), %rax
	movq	8(%rax), %rdx
	leaq	-8(%rdx), %rcx
	movq	%rcx, 8(%rax)
	movq	%rbx, -8(%rdx)
	movq	456(%rax), %rdi
	cmpq	%rdi, 8(%rax)
	ja	.L845
	movq	%rax, %rbp
	movq	216(%rsp), %rax
	movq	%rax, 0(%rbp)
	movq	240(%rsp), %rax
	movq	%rax, 24(%rbp)
	movq	232(%rsp), %rax
	movq	%rax, 16(%rbp)
	movq	%r13, 72(%rbp)
	orl	$1073741824, 64(%rbp)
	call	trail_ov@PLT
	andl	$-1073741825, 64(%rbp)
.L845:
	movq	%r14, (%rbx)
	movq	$1, 8(%rbx)
	movq	288(%rsp), %rax
	movq	%rax, (%r14)
	leaq	16(%r14), %rax
	movq	%rax, 264(%rsp)
	movq	$11, 8(%r14)
	addq	$8, %r13
	jmp	.L847
.L842:
	cmpb	$1, %al
	je	.L848
	testq	%rax, %rax
	jns	.L1440
	movq	ec_@GOTPCREL(%rip), %rax
	movq	%rbx, 208(%rax)
	movq	0(%r13), %rax
	movq	%rax, 288(%rsp)
	movq	(%rax), %rax
	movq	%rax, 232(%rsp)
	addq	$1, %rax
	salq	$4, %rax
	movq	224(%rsp), %rsi
	leaq	(%rsi,%rax), %r15
	movq	%rsi, %rax
	movq	288(%rsp), %rdi
	movq	%rdi, (%rsi)
	addq	$16, %rax
	movq	%rax, 264(%rsp)
	movq	$11, 8(%rsi)
	leaq	16(%r13), %r13
	movq	%rsi, %r12
	movl	$1, %r14d
	jmp	.L583
	.p2align 4,,10
	.p2align 3
.L848:
	movq	(%rbx), %rax
	movq	8(%rdx), %rsi
	cmpq	%rsi, (%rax)
	jne	.L1440
	addq	$16, %rax
	movq	%rax, 264(%rsp)
	movq	16(%rdx), %r13
	movq	224(%rsp), %rax
	movq	%rax, 232(%rsp)
.L847:
	movq	%r13, %rax
	leaq	8(%r13), %r13
	movq	(%rax), %rax
	movq	256(%rsp), %rdi
	movq	%rdi, 248(%rsp)
	movq	272(%rsp), %rsi
	movq	%rsi, 280(%rsp)
	movq	240(%rsp), %r14
	jmp	.L428
.L32:
	movq	%r13, %rax
	leaq	8(%r13), %r13
	movq	(%rax), %rbx
	movq	8(%rbx), %rax
	testq	%rax, %rax
	jns	.L849
	cmpq	(%rbx), %rbx
	je	.L850
.L851:
	movq	(%rbx), %rbx
	movq	8(%rbx), %rax
	testq	%rax, %rax
	jns	.L849
	cmpq	%rbx, (%rbx)
	jne	.L851
	jmp	.L850
.L2094:
	cmpq	272(%rsp), %rbx
	jae	.L2576
	cmpq	256(%rsp), %rbx
	jae	.L852
.L2576:
	movq	ec_@GOTPCREL(%rip), %rax
	movq	8(%rax), %rdx
	leaq	-8(%rdx), %rcx
	movq	%rcx, 8(%rax)
	movq	%rbx, -8(%rdx)
	movq	456(%rax), %rdi
	cmpq	%rdi, 8(%rax)
	ja	.L852
	movq	%rax, %rbp
	movq	216(%rsp), %rax
	movq	%rax, 0(%rbp)
	movq	240(%rsp), %rax
	movq	%rax, 24(%rbp)
	movq	%r15, 16(%rbp)
	movq	%r13, 72(%rbp)
	orl	$1073741824, 64(%rbp)
	call	trail_ov@PLT
	andl	$-1073741825, 64(%rbp)
.L852:
	movq	264(%rsp), %rax
	movq	%rax, (%rbx)
	movq	$0, 8(%rbx)
	movq	%r13, %rax
	leaq	8(%r13), %r13
	movq	(%rax), %rax
	movq	256(%rsp), %rsi
	movq	%rsi, 248(%rsp)
	movq	272(%rsp), %rdi
	movq	%rdi, 280(%rsp)
	movq	240(%rsp), %r14
	movq	%r15, 232(%rsp)
	jmp	.L428
.L33:
	movq	%r13, %rdx
	movq	0(%r13), %rbx
	movq	8(%rbx), %rax
	testq	%rax, %rax
	jns	.L854
	cmpq	(%rbx), %rbx
	je	.L855
.L856:
	movq	(%rbx), %rbx
	movq	8(%rbx), %rax
	testq	%rax, %rax
	jns	.L854
	cmpq	%rbx, (%rbx)
	jne	.L856
	jmp	.L855
.L2095:
	cmpq	272(%rsp), %rbx
	jae	.L2577
	cmpq	256(%rsp), %rbx
	jae	.L857
.L2577:
	movq	ec_@GOTPCREL(%rip), %rax
	movq	8(%rax), %rdx
	leaq	-8(%rdx), %rcx
	movq	%rcx, 8(%rax)
	movq	%rbx, -8(%rdx)
	movq	456(%rax), %rsi
	cmpq	%rsi, 8(%rax)
	ja	.L857
	movq	%rax, %rbp
	movq	216(%rsp), %rax
	movq	%rax, 0(%rbp)
	movq	240(%rsp), %rax
	movq	%rax, 24(%rbp)
	movq	%r15, 16(%rbp)
	movq	%r13, 72(%rbp)
	orl	$1073741824, 64(%rbp)
	call	trail_ov@PLT
	andl	$-1073741825, 64(%rbp)
.L857:
	movq	264(%rsp), %rax
	movq	%rax, (%rbx)
	movq	$1, 8(%rbx)
	movq	288(%rsp), %rdi
	movq	%rdi, (%rax)
	movq	$11, 8(%rax)
	movq	%r13, %rax
	leaq	8(%r13), %r13
	movq	(%rax), %rax
	movq	256(%rsp), %rsi
	movq	%rsi, 248(%rsp)
	movq	272(%rsp), %rdi
	movq	%rdi, 280(%rsp)
	movq	240(%rsp), %r14
	movq	%r15, 232(%rsp)
	movq	264(%rsp), %rsi
	leaq	16(%rsi), %rdi
	movq	%rdi, 264(%rsp)
	jmp	.L428
.L2617:
	movq	224(%rsp), %rax
	movq	288(%rsp), %rsi
	movq	%rsi, (%rax)
	movq	$11, 8(%rax)
	movq	%rax, %r12
	leaq	16(%rax), %rax
	movq	%rax, 264(%rsp)
	movl	$1, %r14d
	jmp	.L583
.L37:
	addq	$16, 264(%rsp)
	movq	%r13, %rax
	leaq	8(%r13), %r13
	movq	(%rax), %rax
	movq	256(%rsp), %rdi
	movq	%rdi, 248(%rsp)
	movq	272(%rsp), %rsi
	movq	%rsi, 280(%rsp)
	movq	240(%rsp), %r14
	movq	224(%rsp), %rdi
	movq	%rdi, 232(%rsp)
	jmp	.L428
.L266:
	movq	%r13, %rax
	movq	0(%r13), %rsi
	addq	%rsi, 264(%rsp)
	leaq	16(%r13), %r13
	movq	8(%rax), %rax
	movq	256(%rsp), %rdi
	movq	%rdi, 248(%rsp)
	movq	272(%rsp), %rsi
	movq	%rsi, 280(%rsp)
	movq	240(%rsp), %r14
	movq	224(%rsp), %rdi
	movq	%rdi, 232(%rsp)
	jmp	.L428
.L39:
	subq	$16, 216(%rsp)
	movq	264(%rsp), %rax
	addq	$16, 264(%rsp)
	movq	8(%rax), %rdx
	movq	(%rax), %rax
	movq	216(%rsp), %rsi
	movq	%rax, (%rsi)
	movq	%rdx, 8(%rsi)
	movq	ec_@GOTPCREL(%rip), %rax
	cmpq	472(%rax), %rsi
	ja	.L859
	movq	%rsi, (%rax)
	movq	240(%rsp), %rdi
	movq	%rdi, 24(%rax)
	movq	224(%rsp), %rsi
	movq	%rsi, 16(%rax)
	movq	%r13, 72(%rax)
	orl	$1073741824, 64(%rax)
	call	local_ov@PLT
	testl	%eax, %eax
	je	.L860
	movq	256(%rsp), %rax
	movq	%rax, 248(%rsp)
	movq	272(%rsp), %rax
	movq	%rax, 280(%rsp)
	movq	240(%rsp), %r14
	movq	224(%rsp), %rax
	movq	%rax, 232(%rsp)
	jmp	.L411
	.p2align 4,,10
	.p2align 3
.L860:
	movq	ec_@GOTPCREL(%rip), %rax
	andl	$-1073741825, 64(%rax)
.L859:
	movq	%r13, %rax
	leaq	8(%r13), %r13
	movq	(%rax), %rax
	movq	256(%rsp), %rdi
	movq	%rdi, 248(%rsp)
	movq	272(%rsp), %rsi
	movq	%rsi, 280(%rsp)
	movq	240(%rsp), %r14
	movq	224(%rsp), %rdi
	movq	%rdi, 232(%rsp)
	jmp	.L428
.L367:
	movq	%r13, %rax
	leaq	8(%r13), %r13
	movq	(%rax), %rdx
	movq	264(%rsp), %rax
	addq	$16, 264(%rsp)
	movq	(%rax), %rcx
	movq	8(%rax), %rbx
	movq	%rcx, (%rdx)
	movq	%rbx, 8(%rdx)
.L41:
	movq	%r13, %rcx
	movq	0(%r13), %rsi
	movq	264(%rsp), %rax
	addq	$16, 264(%rsp)
	movq	8(%rax), %rdx
	movq	(%rax), %rax
	movq	%rax, (%rsi)
	movq	%rdx, 8(%rsi)
	leaq	16(%r13), %r13
	movq	8(%rcx), %rax
	movq	256(%rsp), %rsi
	movq	%rsi, 248(%rsp)
	movq	272(%rsp), %rdi
	movq	%rdi, 280(%rsp)
	movq	240(%rsp), %r14
	movq	224(%rsp), %rsi
	movq	%rsi, 232(%rsp)
	jmp	.L428
.L366:
	movq	%r13, %rax
	movq	0(%r13), %rcx
	movq	264(%rsp), %rdx
	movq	(%rdx), %rsi
	movq	8(%rdx), %rdi
	movq	%rsi, (%rcx)
	movq	%rdi, 8(%rcx)
	addq	$32, 264(%rsp)
	movq	240(%rsp), %rcx
	subq	8(%r13), %rcx
	movq	16(%rdx), %rsi
	movq	24(%rdx), %rdi
	movq	%rsi, (%rcx)
	movq	%rdi, 8(%rcx)
	leaq	24(%r13), %r13
	addq	$16, %rax
	movq	(%rax), %rax
	movq	256(%rsp), %rsi
	movq	%rsi, 248(%rsp)
	movq	272(%rsp), %rdi
	movq	%rdi, 280(%rsp)
	movq	240(%rsp), %r14
	movq	224(%rsp), %rsi
	movq	%rsi, 232(%rsp)
	jmp	.L428
.L43:
	movq	216(%rsp), %rax
	leaq	-8(%rax), %r14
	movq	240(%rsp), %rdi
	movq	%rdi, -8(%rax)
	movq	%r13, %rax
	leaq	8(%r13), %r13
	movq	%r14, %rdi
	subq	(%rax), %rdi
	movq	%rdi, 216(%rsp)
	movq	%r14, 240(%rsp)
	movq	ec_@GOTPCREL(%rip), %rax
	cmpq	472(%rax), %rdi
	ja	.L45
	movq	%rdi, (%rax)
	movq	%r14, 24(%rax)
	movq	224(%rsp), %rsi
	movq	%rsi, 16(%rax)
	movq	%r13, 72(%rax)
	orl	$1073741824, 64(%rax)
	call	local_ov@PLT
	testl	%eax, %eax
	je	.L861
	movq	256(%rsp), %rax
	movq	%rax, 248(%rsp)
	movq	272(%rsp), %rax
	movq	%rax, 280(%rsp)
	movq	224(%rsp), %rax
	movq	%rax, 232(%rsp)
	jmp	.L411
	.p2align 4,,10
	.p2align 3
.L861:
	movq	ec_@GOTPCREL(%rip), %rax
	andl	$-1073741825, 64(%rax)
	movq	%r14, 240(%rsp)
.L45:
	movq	%r13, %rax
	movq	264(%rsp), %rdx
	addq	$16, 264(%rsp)
	movq	240(%rsp), %rcx
	subq	0(%r13), %rcx
	movq	(%rdx), %rsi
	movq	8(%rdx), %rdi
	movq	%rsi, (%rcx)
	movq	%rdi, 8(%rcx)
	leaq	16(%r13), %r13
	addq	$8, %rax
	movq	(%rax), %rax
	movq	256(%rsp), %rdi
	movq	%rdi, 248(%rsp)
	movq	272(%rsp), %rsi
	movq	%rsi, 280(%rsp)
	movq	240(%rsp), %r14
	movq	224(%rsp), %rdi
	movq	%rdi, 232(%rsp)
	jmp	.L428
.L368:
	movq	%r13, %rax
	movq	264(%rsp), %rdx
	movq	240(%rsp), %rcx
	subq	0(%r13), %rcx
	movq	8(%rdx), %rdi
	movq	(%rdx), %rsi
	movq	%rsi, (%rcx)
	movq	%rdi, 8(%rcx)
	addq	$32, 264(%rsp)
	movq	240(%rsp), %rcx
	subq	8(%r13), %rcx
	movq	16(%rdx), %rsi
	movq	24(%rdx), %rdi
	movq	%rsi, (%rcx)
	movq	%rdi, 8(%rcx)
	leaq	24(%r13), %r13
	addq	$16, %rax
	movq	(%rax), %rax
	movq	256(%rsp), %rdi
	movq	%rdi, 248(%rsp)
	movq	272(%rsp), %rsi
	movq	%rsi, 280(%rsp)
	movq	240(%rsp), %r14
	movq	224(%rsp), %rdi
	movq	%rdi, 232(%rsp)
	jmp	.L428
.L265:
	subq	$16, 216(%rsp)
	movq	216(%rsp), %rax
	movabsq	$-9223372036854775553, %rsi
	movq	%rsi, 8(%rax)
	movq	264(%rsp), %rax
	addq	$16, 264(%rsp)
	movq	216(%rsp), %rdi
	movq	%rax, (%rdi)
	movq	ec_@GOTPCREL(%rip), %rax
	cmpq	472(%rax), %rdi
	ja	.L862
	movq	%rdi, (%rax)
	movq	240(%rsp), %rsi
	movq	%rsi, 24(%rax)
	movq	224(%rsp), %rdi
	movq	%rdi, 16(%rax)
	movq	%r13, 72(%rax)
	orl	$1073741824, 64(%rax)
	call	local_ov@PLT
	testl	%eax, %eax
	je	.L863
	movq	256(%rsp), %rax
	movq	%rax, 248(%rsp)
	movq	272(%rsp), %rax
	movq	%rax, 280(%rsp)
	movq	240(%rsp), %r14
	movq	224(%rsp), %rax
	movq	%rax, 232(%rsp)
	jmp	.L411
	.p2align 4,,10
	.p2align 3
.L863:
	movq	ec_@GOTPCREL(%rip), %rax
	andl	$-1073741825, 64(%rax)
.L862:
	movq	%r13, %rax
	leaq	8(%r13), %r13
	movq	(%rax), %rax
	movq	256(%rsp), %rsi
	movq	%rsi, 248(%rsp)
	movq	272(%rsp), %rdi
	movq	%rdi, 280(%rsp)
	movq	240(%rsp), %r14
	movq	224(%rsp), %rsi
	movq	%rsi, 232(%rsp)
	jmp	.L428
.L264:
	movq	%r13, %rax
	movq	0(%r13), %rdx
	movq	264(%rsp), %rcx
	addq	$16, 264(%rsp)
	movq	%rcx, (%rdx)
	movabsq	$-9223372036854775553, %rdi
	movq	%rdi, 8(%rdx)
	leaq	16(%r13), %r13
	addq	$8, %rax
	movq	(%rax), %rax
	movq	256(%rsp), %rsi
	movq	%rsi, 248(%rsp)
	movq	272(%rsp), %rdi
	movq	%rdi, 280(%rsp)
	movq	240(%rsp), %r14
	movq	224(%rsp), %rsi
	movq	%rsi, 232(%rsp)
	jmp	.L428
.L262:
	movq	216(%rsp), %rax
	leaq	-8(%rax), %r14
	movq	240(%rsp), %rdi
	movq	%rdi, -8(%rax)
	movq	%r13, %rax
	leaq	8(%r13), %r13
	movq	%r14, %rdi
	subq	(%rax), %rdi
	movq	%rdi, 216(%rsp)
	movq	%r14, 240(%rsp)
	movq	ec_@GOTPCREL(%rip), %rax
	cmpq	472(%rax), %rdi
	ja	.L263
	movq	%rdi, (%rax)
	movq	%r14, 24(%rax)
	movq	224(%rsp), %rsi
	movq	%rsi, 16(%rax)
	movq	%r13, 72(%rax)
	orl	$1073741824, 64(%rax)
	call	local_ov@PLT
	testl	%eax, %eax
	je	.L864
	movq	256(%rsp), %rax
	movq	%rax, 248(%rsp)
	movq	272(%rsp), %rax
	movq	%rax, 280(%rsp)
	movq	224(%rsp), %rax
	movq	%rax, 232(%rsp)
	jmp	.L411
	.p2align 4,,10
	.p2align 3
.L864:
	movq	ec_@GOTPCREL(%rip), %rax
	andl	$-1073741825, 64(%rax)
	movq	%r14, 240(%rsp)
.L263:
	movq	%r13, %rax
	movq	240(%rsp), %rdx
	subq	0(%r13), %rdx
	movq	264(%rsp), %rcx
	addq	$16, 264(%rsp)
	movq	%rcx, (%rdx)
	movabsq	$-9223372036854775553, %rdi
	movq	%rdi, 8(%rdx)
	leaq	16(%r13), %r13
	addq	$8, %rax
	movq	(%rax), %rax
	movq	256(%rsp), %rsi
	movq	%rsi, 248(%rsp)
	movq	272(%rsp), %rdi
	movq	%rdi, 280(%rsp)
	movq	240(%rsp), %r14
	movq	224(%rsp), %rsi
	movq	%rsi, 232(%rsp)
	jmp	.L428
.L47:
	movq	%r13, %rax
	leaq	8(%r13), %r13
	movq	(%rax), %rbp
	movq	264(%rsp), %r12
	addq	$16, 264(%rsp)
	movq	256(%rsp), %rax
	movq	%rax, 248(%rsp)
	movq	272(%rsp), %rax
	movq	%rax, 280(%rsp)
	movq	240(%rsp), %r14
	movq	224(%rsp), %rax
	movq	%rax, 232(%rsp)
	jmp	.L496
.L51:
	movq	%r13, %rax
	leaq	8(%r13), %r13
	movq	240(%rsp), %rbp
	subq	(%rax), %rbp
	movq	264(%rsp), %r12
	addq	$16, 264(%rsp)
	movq	256(%rsp), %rax
	movq	%rax, 248(%rsp)
	movq	272(%rsp), %rax
	movq	%rax, 280(%rsp)
	movq	240(%rsp), %r14
	movq	224(%rsp), %rax
	movq	%rax, 232(%rsp)
	jmp	.L496
.L55:
	movq	%r13, %rax
	leaq	8(%r13), %r13
	movq	216(%rsp), %rbp
	addq	(%rax), %rbp
	movq	264(%rsp), %r12
	addq	$16, 264(%rsp)
	movq	256(%rsp), %rax
	movq	%rax, 248(%rsp)
	movq	272(%rsp), %rax
	movq	%rax, 280(%rsp)
	movq	240(%rsp), %r14
	movq	224(%rsp), %rax
	movq	%rax, 232(%rsp)
	jmp	.L496
.L186:
	movq	264(%rsp), %rbx
	movq	%rbx, %rax
	addq	$16, %rax
	movq	%rax, 264(%rsp)
	jmp	.L750
.L59:
	movq	264(%rsp), %rax
	leaq	16(%rax), %rbp
	movq	8(%rax), %rax
	testq	%rax, %rax
	jns	.L865
	movq	264(%rsp), %rdi
	cmpq	(%rdi), %rdi
	je	.L865
.L866:
	movq	264(%rsp), %rax
	movq	(%rax), %rax
	movq	%rax, 264(%rsp)
	movq	8(%rax), %rax
	testq	%rax, %rax
	jns	.L865
	movq	264(%rsp), %rsi
	cmpq	%rsi, (%rsi)
	jne	.L866
.L865:
	cmpb	$-1, %al
	jne	.L867
	movq	272(%rsp), %rax
	cmpq	%rax, 264(%rsp)
	jae	.L2578
	movq	256(%rsp), %rax
	cmpq	%rax, 264(%rsp)
	jae	.L868
.L2578:
	movq	ec_@GOTPCREL(%rip), %rax
	movq	8(%rax), %rdx
	leaq	-8(%rdx), %rcx
	movq	%rcx, 8(%rax)
	movq	264(%rsp), %rsi
	movq	%rsi, -8(%rdx)
	movq	456(%rax), %rdi
	cmpq	%rdi, 8(%rax)
	ja	.L868
	movq	%rax, %rbx
	movq	216(%rsp), %rax
	movq	%rax, (%rbx)
	movq	240(%rsp), %rax
	movq	%rax, 24(%rbx)
	movq	224(%rsp), %rax
	movq	%rax, 16(%rbx)
	movq	%r13, 72(%rbx)
	orl	$1073741824, 64(%rbx)
	call	trail_ov@PLT
	andl	$-1073741825, 64(%rbx)
.L868:
	movq	264(%rsp), %rax
	movq	$9, 8(%rax)
	jmp	.L870
.L867:
	cmpb	$9, %al
	je	.L870
	testq	%rax, %rax
	js	.L2250
	movq	%rbp, 264(%rsp)
	jmp	.L1440
.L870:
	movq	%r13, %rax
	leaq	8(%r13), %r13
	movq	(%rax), %rax
	movq	256(%rsp), %rsi
	movq	%rsi, 248(%rsp)
	movq	272(%rsp), %rdi
	movq	%rdi, 280(%rsp)
	movq	240(%rsp), %r14
	movq	224(%rsp), %rsi
	movq	%rsi, 232(%rsp)
	movq	%rbp, 264(%rsp)
	jmp	.L428
.L388:
	movq	264(%rsp), %rbx
	addq	$16, 264(%rsp)
	movq	8(%rbx), %rax
	testq	%rax, %rax
	jns	.L871
	cmpq	(%rbx), %rbx
	je	.L871
.L872:
	movq	(%rbx), %rbx
	movq	8(%rbx), %rax
	testq	%rax, %rax
	jns	.L871
	cmpq	%rbx, (%rbx)
	jne	.L872
.L871:
	cmpb	$-1, %al
	jne	.L873
	cmpq	272(%rsp), %rbx
	jae	.L2579
	cmpq	256(%rsp), %rbx
	jae	.L874
.L2579:
	movq	ec_@GOTPCREL(%rip), %rax
	movq	8(%rax), %rdx
	leaq	-8(%rdx), %rcx
	movq	%rcx, 8(%rax)
	movq	%rbx, -8(%rdx)
	movq	456(%rax), %rdi
	cmpq	%rdi, 8(%rax)
	ja	.L874
	movq	%rax, %rbp
	movq	216(%rsp), %rax
	movq	%rax, 0(%rbp)
	movq	240(%rsp), %rax
	movq	%rax, 24(%rbp)
	movq	224(%rsp), %rax
	movq	%rax, 16(%rbp)
	movq	%r13, 72(%rbp)
	orl	$1073741824, 64(%rbp)
	call	trail_ov@PLT
	andl	$-1073741825, 64(%rbp)
.L874:
	movq	%r13, %rax
	leaq	8(%r13), %r13
	movq	(%rax), %rax
	movq	%rax, (%rbx)
	movq	$10, 8(%rbx)
	jmp	.L61
.L873:
	cmpb	$10, %al
	je	.L876
	testq	%rax, %rax
	jns	.L1440
	movq	%r13, %rax
	leaq	8(%r13), %r13
	movq	(%rax), %r12
	movq	224(%rsp), %r15
	movl	$10, %r14d
	jmp	.L583
	.p2align 4,,10
	.p2align 3
.L876:
	movq	%r13, %rax
	leaq	8(%r13), %r13
	movq	(%rax), %rax
	cmpq	%rax, (%rbx)
	jne	.L1440
.L61:
	movq	264(%rsp), %rax
	leaq	16(%rax), %rbp
	movq	8(%rax), %rax
	testq	%rax, %rax
	jns	.L877
	movq	264(%rsp), %rsi
	cmpq	(%rsi), %rsi
	je	.L877
.L878:
	movq	264(%rsp), %rax
	movq	(%rax), %rax
	movq	%rax, 264(%rsp)
	movq	8(%rax), %rax
	testq	%rax, %rax
	jns	.L877
	movq	264(%rsp), %rsi
	cmpq	%rsi, (%rsi)
	jne	.L878
.L877:
	cmpb	$-1, %al
	jne	.L879
	movq	272(%rsp), %rax
	cmpq	%rax, 264(%rsp)
	jae	.L2580
	movq	256(%rsp), %rax
	cmpq	%rax, 264(%rsp)
	jae	.L880
.L2580:
	movq	ec_@GOTPCREL(%rip), %rax
	movq	8(%rax), %rdx
	leaq	-8(%rdx), %rcx
	movq	%rcx, 8(%rax)
	movq	264(%rsp), %rdi
	movq	%rdi, -8(%rdx)
	movq	456(%rax), %rsi
	cmpq	%rsi, 8(%rax)
	ja	.L880
	movq	%rax, %rbx
	movq	216(%rsp), %rax
	movq	%rax, (%rbx)
	movq	240(%rsp), %rax
	movq	%rax, 24(%rbx)
	movq	224(%rsp), %rax
	movq	%rax, 16(%rbx)
	movq	%r13, 72(%rbx)
	orl	$1073741824, 64(%rbx)
	call	trail_ov@PLT
	andl	$-1073741825, 64(%rbx)
.L880:
	movq	%r13, %rax
	leaq	8(%r13), %r13
	movq	(%rax), %rax
	movq	264(%rsp), %rdi
	movq	%rax, (%rdi)
	movq	$10, 8(%rdi)
	jmp	.L882
.L879:
	cmpb	$10, %al
	je	.L883
	testq	%rax, %rax
	jns	.L2251
	movq	%r13, %rax
	leaq	8(%r13), %r13
	movq	(%rax), %r12
	movq	224(%rsp), %r15
	movq	264(%rsp), %rbx
	movq	%rbp, 264(%rsp)
	movl	$10, %r14d
	jmp	.L583
.L883:
	movq	264(%rsp), %rax
	movq	(%rax), %rdx
	movq	%r13, %rax
	leaq	8(%r13), %r13
	movq	%rbp, 264(%rsp)
	cmpq	(%rax), %rdx
	jne	.L1440
.L882:
	movq	%r13, %rax
	leaq	8(%r13), %r13
	movq	(%rax), %rax
	movq	256(%rsp), %rsi
	movq	%rsi, 248(%rsp)
	movq	272(%rsp), %rdi
	movq	%rdi, 280(%rsp)
	movq	240(%rsp), %r14
	movq	224(%rsp), %rsi
	movq	%rsi, 232(%rsp)
	movq	%rbp, 264(%rsp)
	jmp	.L428
.L387:
	movq	264(%rsp), %rbx
	addq	$16, 264(%rsp)
	movq	8(%rbx), %rax
	testq	%rax, %rax
	jns	.L884
	cmpq	(%rbx), %rbx
	je	.L884
.L885:
	movq	(%rbx), %rbx
	movq	8(%rbx), %rax
	testq	%rax, %rax
	jns	.L884
	cmpq	%rbx, (%rbx)
	jne	.L885
.L884:
	cmpb	$-1, %al
	jne	.L886
	cmpq	272(%rsp), %rbx
	jae	.L2581
	cmpq	256(%rsp), %rbx
	jae	.L887
.L2581:
	movq	ec_@GOTPCREL(%rip), %rax
	movq	8(%rax), %rdx
	leaq	-8(%rdx), %rcx
	movq	%rcx, 8(%rax)
	movq	%rbx, -8(%rdx)
	movq	456(%rax), %rdi
	cmpq	%rdi, 8(%rax)
	ja	.L887
	movq	%rax, %rbp
	movq	216(%rsp), %rax
	movq	%rax, 0(%rbp)
	movq	240(%rsp), %rax
	movq	%rax, 24(%rbp)
	movq	224(%rsp), %rax
	movq	%rax, 16(%rbp)
	movq	%r13, 72(%rbp)
	orl	$1073741824, 64(%rbp)
	call	trail_ov@PLT
	andl	$-1073741825, 64(%rbp)
.L887:
	movq	%r13, %rax
	leaq	8(%r13), %r13
	movq	(%rax), %rax
	movq	%rax, (%rbx)
	movq	$11, 8(%rbx)
	jmp	.L65
.L886:
	cmpb	$11, %al
	je	.L889
	testq	%rax, %rax
	jns	.L1440
	movq	%r13, %rax
	leaq	8(%r13), %r13
	movq	(%rax), %r12
	movq	224(%rsp), %r15
	movl	$11, %r14d
	jmp	.L583
	.p2align 4,,10
	.p2align 3
.L889:
	movq	%r13, %rax
	leaq	8(%r13), %r13
	movq	(%rax), %rax
	cmpq	%rax, (%rbx)
	jne	.L1440
.L65:
	movq	264(%rsp), %rax
	leaq	16(%rax), %rbp
	movq	8(%rax), %rax
	testq	%rax, %rax
	jns	.L890
	movq	264(%rsp), %rsi
	cmpq	(%rsi), %rsi
	je	.L890
.L891:
	movq	264(%rsp), %rax
	movq	(%rax), %rax
	movq	%rax, 264(%rsp)
	movq	8(%rax), %rax
	testq	%rax, %rax
	jns	.L890
	movq	264(%rsp), %rdi
	cmpq	%rdi, (%rdi)
	jne	.L891
.L890:
	cmpb	$-1, %al
	jne	.L892
	movq	272(%rsp), %rax
	cmpq	%rax, 264(%rsp)
	jae	.L2582
	movq	256(%rsp), %rax
	cmpq	%rax, 264(%rsp)
	jae	.L893
.L2582:
	movq	ec_@GOTPCREL(%rip), %rax
	movq	8(%rax), %rdx
	leaq	-8(%rdx), %rcx
	movq	%rcx, 8(%rax)
	movq	264(%rsp), %rdi
	movq	%rdi, -8(%rdx)
	movq	456(%rax), %rsi
	cmpq	%rsi, 8(%rax)
	ja	.L893
	movq	%rax, %rbx
	movq	216(%rsp), %rax
	movq	%rax, (%rbx)
	movq	240(%rsp), %rax
	movq	%rax, 24(%rbx)
	movq	224(%rsp), %rax
	movq	%rax, 16(%rbx)
	movq	%r13, 72(%rbx)
	orl	$1073741824, 64(%rbx)
	call	trail_ov@PLT
	andl	$-1073741825, 64(%rbx)
.L893:
	movq	%r13, %rax
	leaq	8(%r13), %r13
	movq	(%rax), %rax
	movq	264(%rsp), %rdi
	movq	%rax, (%rdi)
	movq	$11, 8(%rdi)
	jmp	.L895
.L892:
	cmpb	$11, %al
	je	.L896
	testq	%rax, %rax
	jns	.L2253
	movq	%r13, %rax
	leaq	8(%r13), %r13
	movq	(%rax), %r12
	movq	224(%rsp), %r15
	movq	264(%rsp), %rbx
	movq	%rbp, 264(%rsp)
	movl	$11, %r14d
	jmp	.L583
.L896:
	movq	264(%rsp), %rax
	movq	(%rax), %rdx
	movq	%r13, %rax
	leaq	8(%r13), %r13
	movq	%rbp, 264(%rsp)
	cmpq	(%rax), %rdx
	jne	.L1440
.L895:
	movq	%r13, %rax
	leaq	8(%r13), %r13
	movq	(%rax), %rax
	movq	256(%rsp), %rsi
	movq	%rsi, 248(%rsp)
	movq	272(%rsp), %rdi
	movq	%rdi, 280(%rsp)
	movq	240(%rsp), %r14
	movq	224(%rsp), %rsi
	movq	%rsi, 232(%rsp)
	movq	%rbp, 264(%rsp)
	jmp	.L428
.L389:
	movq	264(%rsp), %r14
	addq	$16, 264(%rsp)
	movq	8(%r14), %rax
	testq	%rax, %rax
	jns	.L2255
	cmpq	(%r14), %r14
	je	.L2256
	movq	%r14, %rbx
.L898:
	movq	(%rbx), %rbx
	movq	8(%rbx), %rax
	testq	%rax, %rax
	jns	.L897
	cmpq	%rbx, (%rbx)
	jne	.L898
	jmp	.L897
.L2255:
	movq	%r14, %rbx
	.p2align 4,,5
	jmp	.L897
.L2256:
	movq	%r14, %rbx
.L897:
	cmpb	$-1, %al
	.p2align 4,,3
	jne	.L899
	cmpq	272(%rsp), %rbx
	jae	.L2583
	cmpq	256(%rsp), %rbx
	jae	.L900
.L2583:
	movq	ec_@GOTPCREL(%rip), %rax
	movq	8(%rax), %rdx
	leaq	-8(%rdx), %rcx
	movq	%rcx, 8(%rax)
	movq	%rbx, -8(%rdx)
	movq	456(%rax), %rdi
	cmpq	%rdi, 8(%rax)
	ja	.L900
	movq	%rax, %rbp
	movq	216(%rsp), %rax
	movq	%rax, 0(%rbp)
	movq	240(%rsp), %rax
	movq	%rax, 24(%rbp)
	movq	224(%rsp), %rax
	movq	%rax, 16(%rbp)
	movq	%r13, 72(%rbp)
	orl	$1073741824, 64(%rbp)
	call	trail_ov@PLT
	andl	$-1073741825, 64(%rbp)
.L900:
	movq	%r13, %rax
	leaq	8(%r13), %r13
	movq	(%rax), %rax
	movq	%rax, (%rbx)
	movq	$10, 8(%rbx)
	jmp	.L902
.L899:
	cmpb	$10, %al
	je	.L903
	testq	%rax, %rax
	jns	.L1440
	movq	%r13, %rax
	leaq	8(%r13), %r13
	movq	(%rax), %r12
	movq	224(%rsp), %r15
	movl	$10, %r14d
	jmp	.L583
	.p2align 4,,10
	.p2align 3
.L903:
	movq	%r13, %rax
	leaq	8(%r13), %r13
	movq	(%rax), %rax
	cmpq	%rax, (%rbx)
	jne	.L1440
.L902:
	leaq	32(%r14), %rbp
	movq	24(%r14), %rax
	testq	%rax, %rax
	jns	.L904
	movq	264(%rsp), %rsi
	cmpq	16(%r14), %rsi
	je	.L904
.L905:
	movq	264(%rsp), %rax
	movq	(%rax), %rax
	movq	%rax, 264(%rsp)
	movq	8(%rax), %rax
	testq	%rax, %rax
	jns	.L904
	movq	264(%rsp), %rdi
	cmpq	%rdi, (%rdi)
	jne	.L905
.L904:
	cmpb	$-1, %al
	jne	.L906
	movq	272(%rsp), %rax
	cmpq	%rax, 264(%rsp)
	jae	.L2584
	movq	256(%rsp), %rax
	cmpq	%rax, 264(%rsp)
	jae	.L907
.L2584:
	movq	ec_@GOTPCREL(%rip), %rax
	movq	8(%rax), %rdx
	leaq	-8(%rdx), %rcx
	movq	%rcx, 8(%rax)
	movq	264(%rsp), %rsi
	movq	%rsi, -8(%rdx)
	movq	456(%rax), %rdi
	cmpq	%rdi, 8(%rax)
	ja	.L907
	movq	%rax, %rbx
	movq	216(%rsp), %rax
	movq	%rax, (%rbx)
	movq	240(%rsp), %rax
	movq	%rax, 24(%rbx)
	movq	224(%rsp), %rax
	movq	%rax, 16(%rbx)
	movq	%r13, 72(%rbx)
	orl	$1073741824, 64(%rbx)
	call	trail_ov@PLT
	andl	$-1073741825, 64(%rbx)
.L907:
	movq	%r13, %rax
	leaq	8(%r13), %r13
	movq	(%rax), %rax
	movq	264(%rsp), %rsi
	movq	%rax, (%rsi)
	movq	$11, 8(%rsi)
	jmp	.L909
	.p2align 4,,10
	.p2align 3
.L906:
	cmpb	$11, %al
	je	.L910
	testq	%rax, %rax
	jns	.L2257
	movq	%r13, %rax
	leaq	8(%r13), %r13
	movq	(%rax), %r12
	movq	224(%rsp), %r15
	movq	264(%rsp), %rbx
	movq	%rbp, 264(%rsp)
	movl	$11, %r14d
	jmp	.L583
.L910:
	movq	264(%rsp), %rax
	movq	(%rax), %rdx
	movq	%r13, %rax
	leaq	8(%r13), %r13
	movq	%rbp, 264(%rsp)
	cmpq	(%rax), %rdx
	jne	.L1440
.L909:
	movq	%r13, %rax
	leaq	8(%r13), %r13
	movq	(%rax), %rax
	movq	256(%rsp), %rdi
	movq	%rdi, 248(%rsp)
	movq	272(%rsp), %rsi
	movq	%rsi, 280(%rsp)
	movq	240(%rsp), %r14
	movq	224(%rsp), %rdi
	movq	%rdi, 232(%rsp)
	movq	%rbp, 264(%rsp)
	jmp	.L428
	.p2align 4,,10
	.p2align 3
.L390:
	movq	264(%rsp), %r14
	addq	$16, 264(%rsp)
	movq	8(%r14), %rax
	testq	%rax, %rax
	jns	.L2259
	cmpq	(%r14), %r14
	je	.L2260
	movq	%r14, %rbx
.L912:
	movq	(%rbx), %rbx
	movq	8(%rbx), %rax
	testq	%rax, %rax
	jns	.L911
	cmpq	%rbx, (%rbx)
	jne	.L912
	jmp	.L911
.L2259:
	movq	%r14, %rbx
	.p2align 4,,5
	jmp	.L911
.L2260:
	movq	%r14, %rbx
.L911:
	cmpb	$-1, %al
	.p2align 4,,3
	jne	.L913
	cmpq	272(%rsp), %rbx
	jae	.L2585
	cmpq	256(%rsp), %rbx
	jae	.L914
.L2585:
	movq	ec_@GOTPCREL(%rip), %rax
	movq	8(%rax), %rdx
	leaq	-8(%rdx), %rcx
	movq	%rcx, 8(%rax)
	movq	%rbx, -8(%rdx)
	movq	456(%rax), %rsi
	cmpq	%rsi, 8(%rax)
	ja	.L914
	movq	%rax, %rbp
	movq	216(%rsp), %rax
	movq	%rax, 0(%rbp)
	movq	240(%rsp), %rax
	movq	%rax, 24(%rbp)
	movq	224(%rsp), %rax
	movq	%rax, 16(%rbp)
	movq	%r13, 72(%rbp)
	orl	$1073741824, 64(%rbp)
	call	trail_ov@PLT
	andl	$-1073741825, 64(%rbp)
.L914:
	movq	%r13, %rax
	leaq	8(%r13), %r13
	movq	(%rax), %rax
	movq	%rax, (%rbx)
	movq	$11, 8(%rbx)
	jmp	.L916
.L913:
	cmpb	$11, %al
	je	.L917
	testq	%rax, %rax
	jns	.L1440
	movq	%r13, %rax
	leaq	8(%r13), %r13
	movq	(%rax), %r12
	movq	224(%rsp), %r15
	movl	$11, %r14d
	jmp	.L583
	.p2align 4,,10
	.p2align 3
.L917:
	movq	%r13, %rax
	leaq	8(%r13), %r13
	movq	(%rax), %rax
	cmpq	%rax, (%rbx)
	jne	.L1440
.L916:
	leaq	32(%r14), %rbp
	movq	24(%r14), %rax
	testq	%rax, %rax
	jns	.L918
	movq	264(%rsp), %rdi
	cmpq	16(%r14), %rdi
	je	.L918
.L919:
	movq	264(%rsp), %rax
	movq	(%rax), %rax
	movq	%rax, 264(%rsp)
	movq	8(%rax), %rax
	testq	%rax, %rax
	jns	.L918
	movq	264(%rsp), %rsi
	cmpq	%rsi, (%rsi)
	jne	.L919
.L918:
	cmpb	$-1, %al
	jne	.L920
	movq	272(%rsp), %rax
	cmpq	%rax, 264(%rsp)
	jae	.L2586
	movq	256(%rsp), %rax
	cmpq	%rax, 264(%rsp)
	jae	.L921
.L2586:
	movq	ec_@GOTPCREL(%rip), %rax
	movq	8(%rax), %rdx
	leaq	-8(%rdx), %rcx
	movq	%rcx, 8(%rax)
	movq	264(%rsp), %rdi
	movq	%rdi, -8(%rdx)
	movq	456(%rax), %rsi
	cmpq	%rsi, 8(%rax)
	ja	.L921
	movq	%rax, %rbx
	movq	216(%rsp), %rax
	movq	%rax, (%rbx)
	movq	240(%rsp), %rax
	movq	%rax, 24(%rbx)
	movq	224(%rsp), %rax
	movq	%rax, 16(%rbx)
	movq	%r13, 72(%rbx)
	orl	$1073741824, 64(%rbx)
	call	trail_ov@PLT
	andl	$-1073741825, 64(%rbx)
.L921:
	movq	%r13, %rax
	leaq	8(%r13), %r13
	movq	(%rax), %rax
	movq	264(%rsp), %rdi
	movq	%rax, (%rdi)
	movq	$10, 8(%rdi)
	jmp	.L923
	.p2align 4,,10
	.p2align 3
.L920:
	cmpb	$10, %al
	je	.L924
	testq	%rax, %rax
	jns	.L2261
	movq	%r13, %rax
	leaq	8(%r13), %r13
	movq	(%rax), %r12
	movq	224(%rsp), %r15
	movq	264(%rsp), %rbx
	movq	%rbp, 264(%rsp)
	movl	$10, %r14d
	jmp	.L583
.L924:
	movq	264(%rsp), %rax
	movq	(%rax), %rdx
	movq	%r13, %rax
	leaq	8(%r13), %r13
	movq	%rbp, 264(%rsp)
	cmpq	(%rax), %rdx
	jne	.L1440
.L923:
	movq	%r13, %rax
	leaq	8(%r13), %r13
	movq	(%rax), %rax
	movq	256(%rsp), %rsi
	movq	%rsi, 248(%rsp)
	movq	272(%rsp), %rdi
	movq	%rdi, 280(%rsp)
	movq	240(%rsp), %r14
	movq	224(%rsp), %rsi
	movq	%rsi, 232(%rsp)
	movq	%rbp, 264(%rsp)
	jmp	.L428
	.p2align 4,,10
	.p2align 3
.L67:
	movq	264(%rsp), %rbx
	addq	$16, 264(%rsp)
	movq	8(%rbx), %rax
	testq	%rax, %rax
	jns	.L925
	cmpq	(%rbx), %rbx
	je	.L925
.L926:
	movq	(%rbx), %rbx
	movq	8(%rbx), %rax
	testq	%rax, %rax
	jns	.L925
	cmpq	%rbx, (%rbx)
	jne	.L926
.L925:
	cmpb	$-1, %al
	jne	.L927
	cmpq	272(%rsp), %rbx
	jae	.L2587
	cmpq	256(%rsp), %rbx
	jae	.L928
.L2587:
	movq	ec_@GOTPCREL(%rip), %rax
	movq	8(%rax), %rdx
	leaq	-8(%rdx), %rcx
	movq	%rcx, 8(%rax)
	movq	%rbx, -8(%rdx)
	movq	456(%rax), %rdi
	cmpq	%rdi, 8(%rax)
	ja	.L928
	movq	%rax, %rbp
	movq	216(%rsp), %rax
	movq	%rax, 0(%rbp)
	movq	240(%rsp), %rax
	movq	%rax, 24(%rbp)
	movq	224(%rsp), %rax
	movq	%rax, 16(%rbp)
	movq	%r13, 72(%rbp)
	orl	$1073741824, 64(%rbp)
	call	trail_ov@PLT
	andl	$-1073741825, 64(%rbp)
.L928:
	movq	%r13, %rax
	leaq	8(%r13), %r13
	movq	(%rax), %rax
	movq	%rax, (%rbx)
	movq	$4, 8(%rbx)
	jmp	.L930
.L927:
	cmpb	$4, %al
	je	.L931
	testq	%rax, %rax
	jns	.L1440
	movq	%r13, %rax
	leaq	8(%r13), %r13
	movq	(%rax), %r12
	movq	224(%rsp), %r15
	movl	$4, %r14d
	jmp	.L583
	.p2align 4,,10
	.p2align 3
.L931:
	movq	(%rbx), %rax
	movq	%r13, %rdx
	leaq	8(%r13), %r13
	movq	(%rdx), %r12
	movq	(%rax), %rdx
	movslq	%edx, %rsi
	movl	%edx, %ecx
	cmpq	(%r12), %rsi
	jne	.L932
	cmpb	$19, 8(%rax)
	jne	.L933
	addq	$16, %rax
	jmp	.L934
.L933:
	movq	16(%rax), %rax
.L934:
	cmpb	$19, 8(%r12)
	jne	.L935
	addq	$16, %r12
.L937:
	leal	-1(%rdx), %ecx
	testl	%edx, %edx
	je	.L932
	movzbl	(%r12), %esi
	cmpb	%sil, (%rax)
	jne	.L932
	subl	$2, %edx
	jmp	.L936
.L935:
	movq	16(%r12), %r12
	jmp	.L937
	.p2align 4,,10
	.p2align 3
.L938:
	subl	$1, %edx
	movzbl	(%r12), %edi
	cmpb	%dil, (%rax)
	jne	.L932
.L936:
	addq	$1, %rax
	addq	$1, %r12
	movl	%edx, %ecx
	cmpl	$-1, %edx
	jne	.L938
.L932:
	testl	%ecx, %ecx
	jns	.L1440
.L930:
	movq	%r13, %rax
	leaq	8(%r13), %r13
	movq	(%rax), %rax
	movq	256(%rsp), %rsi
	movq	%rsi, 248(%rsp)
	movq	272(%rsp), %rdi
	movq	%rdi, 280(%rsp)
	movq	240(%rsp), %r14
	movq	224(%rsp), %rsi
	movq	%rsi, 232(%rsp)
	jmp	.L428
.L243:
	subq	$16, 216(%rsp)
	movq	216(%rsp), %rax
	movq	$0, 8(%rax)
	movq	264(%rsp), %rax
	addq	$16, %rax
	movq	216(%rsp), %rdi
	movq	%rax, (%rdi)
	movq	ec_@GOTPCREL(%rip), %rax
	cmpq	472(%rax), %rdi
	ja	.L2600
	movq	%rdi, (%rax)
	movq	240(%rsp), %rsi
	movq	%rsi, 24(%rax)
	movq	224(%rsp), %rdi
	movq	%rdi, 16(%rax)
	movq	%r13, 72(%rax)
	orl	$1073741824, 64(%rax)
	call	local_ov@PLT
	testl	%eax, %eax
	je	.L939
	movq	256(%rsp), %rax
	movq	%rax, 248(%rsp)
	movq	272(%rsp), %rax
	movq	%rax, 280(%rsp)
	movq	240(%rsp), %r14
	movq	224(%rsp), %rax
	movq	%rax, 232(%rsp)
	jmp	.L411
	.p2align 4,,10
	.p2align 3
.L939:
	movq	ec_@GOTPCREL(%rip), %rax
	andl	$-1073741825, 64(%rax)
	jmp	.L2600
.L2264:
	movq	%rdx, 264(%rsp)
	jmp	.L2600
.L246:
.L2600:
	movq	264(%rsp), %rax
	movq	8(%rax), %rax
	testq	%rax, %rax
	jns	.L941
	movq	264(%rsp), %rsi
	movq	(%rsi), %rdx
	cmpq	%rsi, %rdx
	jne	.L2264
.L941:
	cmpb	$-3, %al
	jne	.L1440
	movq	264(%rsp), %rax
	movq	(%rax), %rax
	movq	%rax, 264(%rsp)
	movq	%r13, %rax
	leaq	8(%r13), %r13
	movq	(%rax), %rax
	movq	256(%rsp), %rdi
	movq	%rdi, 248(%rsp)
	movq	272(%rsp), %rsi
	movq	%rsi, 280(%rsp)
	movq	240(%rsp), %r14
	movq	224(%rsp), %rdi
	movq	%rdi, 232(%rsp)
	jmp	.L428
.L244:
	movq	%r13, %rax
	leaq	8(%r13), %r13
	movq	216(%rsp), %rsi
	addq	(%rax), %rsi
	movq	(%rsi), %rdx
	leaq	16(%rdx), %rcx
	movq	%rcx, (%rsi)
	movq	%rdx, 264(%rsp)
	jmp	.L2600
.L245:
	movq	%r13, %rax
	leaq	8(%r13), %r13
	movq	(%rax), %rax
	movq	264(%rsp), %rsi
	leaq	16(%rsi), %rdx
	movq	216(%rsp), %rdi
	movq	%rdx, (%rdi,%rax)
.L940:
	jmp	.L2600
.L247:
	subq	$16, 216(%rsp)
	movq	216(%rsp), %rax
	movq	$0, 8(%rax)
	movq	264(%rsp), %rax
	addq	$16, %rax
	movq	216(%rsp), %rsi
	movq	%rax, (%rsi)
	movq	ec_@GOTPCREL(%rip), %rax
	cmpq	472(%rax), %rsi
	ja	.L250
	movq	%rsi, (%rax)
	movq	240(%rsp), %rdi
	movq	%rdi, 24(%rax)
	movq	224(%rsp), %rsi
	movq	%rsi, 16(%rax)
	movq	%r13, 72(%rax)
	orl	$1073741824, 64(%rax)
	call	local_ov@PLT
	testl	%eax, %eax
	je	.L942
	movq	256(%rsp), %rax
	movq	%rax, 248(%rsp)
	movq	272(%rsp), %rax
	movq	%rax, 280(%rsp)
	movq	240(%rsp), %r14
	movq	224(%rsp), %rax
	movq	%rax, 232(%rsp)
	jmp	.L411
	.p2align 4,,10
	.p2align 3
.L942:
	movq	ec_@GOTPCREL(%rip), %rax
	andl	$-1073741825, 64(%rax)
.L250:
	movq	0(%r13), %rdx
	movq	8(%r13), %r13
	movq	264(%rsp), %rbx
	jmp	.L819
.L248:
	movq	216(%rsp), %rdx
	addq	0(%r13), %rdx
	movq	(%rdx), %rbx
	leaq	16(%rbx), %rcx
	movq	%rcx, (%rdx)
	movq	8(%r13), %rdx
	movq	16(%r13), %r13
.L819:
	movq	8(%rbx), %rax
	testq	%rax, %rax
	jns	.L820
	cmpq	(%rbx), %rbx
	jne	.L943
	jmp	.L822
.L249:
	movq	0(%r13), %rcx
	movq	264(%rsp), %rdi
	leaq	16(%rdi), %rdx
	movq	216(%rsp), %rsi
	movq	%rdx, (%rsi,%rcx)
	movq	8(%r13), %rdx
	movq	16(%r13), %r13
	movq	%rdi, %rbx
	jmp	.L819
.L2265:
	movq	%rax, 264(%rsp)
.L275:
	movq	264(%rsp), %rax
	cmpq	$0, 8(%rax)
	jns	.L944
	movq	(%rax), %rax
	cmpq	264(%rsp), %rax
	jne	.L2265
.L944:
	movq	264(%rsp), %rax
	movq	(%rax), %rax
	movq	%rax, 264(%rsp)
	movq	%r13, %rax
	movq	0(%r13), %rcx
	movq	264(%rsp), %rdi
	movq	(%rdi), %rdx
	movq	(%rdx), %rdx
	salq	$4, %rdx
	cmpq	%rdx, %rcx
	ja	.L1440
	addq	%rcx, 264(%rsp)
	leaq	16(%r13), %r13
	movq	8(%rax), %rax
	movq	256(%rsp), %rsi
	movq	%rsi, 248(%rsp)
	movq	272(%rsp), %rdi
	movq	%rdi, 280(%rsp)
	movq	240(%rsp), %r14
	movq	224(%rsp), %rsi
	movq	%rsi, 232(%rsp)
	jmp	.L428
.L70:
	subq	$16, 216(%rsp)
	movq	216(%rsp), %rax
	movq	$0, 8(%rax)
	movq	264(%rsp), %rax
	addq	$16, %rax
	movq	216(%rsp), %rdi
	movq	%rax, (%rdi)
	movq	ec_@GOTPCREL(%rip), %rax
	cmpq	472(%rax), %rdi
	ja	.L73
	movq	%rdi, (%rax)
	movq	240(%rsp), %rsi
	movq	%rsi, 24(%rax)
	movq	224(%rsp), %rdi
	movq	%rdi, 16(%rax)
	movq	%r13, 72(%rax)
	orl	$1073741824, 64(%rax)
	call	local_ov@PLT
	testl	%eax, %eax
	je	.L945
	movq	256(%rsp), %rax
	movq	%rax, 248(%rsp)
	movq	272(%rsp), %rax
	movq	%rax, 280(%rsp)
	movq	240(%rsp), %r14
	movq	224(%rsp), %rax
	movq	%rax, 232(%rsp)
	jmp	.L411
	.p2align 4,,10
	.p2align 3
.L945:
	movq	ec_@GOTPCREL(%rip), %rax
	andl	$-1073741825, 64(%rax)
	jmp	.L73
.L2266:
	movq	%rdx, 264(%rsp)
.L73:
	movq	264(%rsp), %rax
	movq	8(%rax), %rax
	testq	%rax, %rax
	jns	.L946
	movq	264(%rsp), %rsi
	movq	(%rsi), %rdx
	cmpq	%rsi, %rdx
	jne	.L2266
	movq	ec_@GOTPCREL(%rip), %rdx
	movq	%rsi, 208(%rdx)
	movq	0(%r13), %r13
	movq	%rsi, %rbx
	movq	224(%rsp), %rsi
	movq	%rsi, 264(%rsp)
	leaq	32(%rsi), %r15
	cmpb	$-1, %al
	jne	.L2267
	cmpq	272(%rsp), %rbx
	jae	.L2588
	cmpq	256(%rsp), %rbx
	jae	.L947
.L2588:
	movq	ec_@GOTPCREL(%rip), %rax
	movq	8(%rax), %rdx
	leaq	-8(%rdx), %rcx
	movq	%rcx, 8(%rax)
	movq	%rbx, -8(%rdx)
	movq	456(%rax), %rsi
	cmpq	%rsi, 8(%rax)
	ja	.L947
	movq	%rax, %rbp
	movq	216(%rsp), %rax
	movq	%rax, 0(%rbp)
	movq	240(%rsp), %rax
	movq	%rax, 24(%rbp)
	movq	%r15, 16(%rbp)
	movq	%r13, 72(%rbp)
	orl	$1073741824, 64(%rbp)
	call	trail_ov@PLT
	andl	$-1073741825, 64(%rbp)
.L947:
	movq	264(%rsp), %rax
	movq	%rax, (%rbx)
	movq	$0, 8(%rbx)
	movq	%r15, 232(%rsp)
	jmp	.L949
	.p2align 4,,10
	.p2align 3
.L946:
	testb	%al, %al
	jne	.L1440
	movq	264(%rsp), %rax
	movq	(%rax), %rax
	movq	%rax, 264(%rsp)
	addq	$8, %r13
	movq	224(%rsp), %rax
	movq	%rax, 232(%rsp)
.L949:
	movq	%r13, %rax
	leaq	8(%r13), %r13
	movq	(%rax), %rax
	movq	256(%rsp), %rdi
	movq	%rdi, 248(%rsp)
	movq	272(%rsp), %rsi
	movq	%rsi, 280(%rsp)
	movq	240(%rsp), %r14
	jmp	.L428
.L71:
	movq	%r13, %rax
	leaq	8(%r13), %r13
	movq	216(%rsp), %r12
	addq	(%rax), %r12
	movq	264(%rsp), %rax
	leaq	16(%rax), %rdx
	movq	%rdx, (%r12)
	movq	8(%rax), %rax
	testq	%rax, %rax
	jns	.L950
	movq	264(%rsp), %rdi
	cmpq	(%rdi), %rdi
	je	.L2268
.L952:
	movq	264(%rsp), %rax
	movq	(%rax), %rax
	movq	%rax, 264(%rsp)
	movq	8(%rax), %rax
	testq	%rax, %rax
	jns	.L950
	movq	264(%rsp), %rsi
	cmpq	%rsi, (%rsi)
	jne	.L952
	jmp	.L2643
.L2098:
	cmpq	272(%rsp), %rbx
	jae	.L2589
	cmpq	256(%rsp), %rbx
	jae	.L953
.L2589:
	movq	ec_@GOTPCREL(%rip), %rax
	movq	8(%rax), %rdx
	leaq	-8(%rdx), %rcx
	movq	%rcx, 8(%rax)
	movq	%rbx, -8(%rdx)
	movq	456(%rax), %rsi
	cmpq	%rsi, 8(%rax)
	ja	.L953
	movq	%rax, %rbp
	movq	216(%rsp), %rax
	movq	%rax, 0(%rbp)
	movq	240(%rsp), %rax
	movq	%rax, 24(%rbp)
	movq	%r15, 16(%rbp)
	movq	%r13, 72(%rbp)
	orl	$1073741824, 64(%rbp)
	call	trail_ov@PLT
	andl	$-1073741825, 64(%rbp)
.L953:
	movq	264(%rsp), %rax
	movq	%rax, (%rbx)
	movq	$0, 8(%rbx)
	jmp	.L955
	.p2align 4,,10
	.p2align 3
.L2097:
	movq	264(%rsp), %rax
	movq	(%rax), %rax
	movq	%rax, 264(%rsp)
	addq	$8, %r13
	movq	224(%rsp), %r15
.L955:
	movq	%r13, %rax
	leaq	8(%r13), %r13
	movq	(%rax), %rax
	movq	256(%rsp), %rdi
	movq	%rdi, 248(%rsp)
	movq	272(%rsp), %rsi
	movq	%rsi, 280(%rsp)
	movq	240(%rsp), %r14
	movq	%r15, 232(%rsp)
	jmp	.L428
.L72:
	movq	%r13, %rax
	leaq	8(%r13), %r13
	movq	216(%rsp), %rdx
	addq	(%rax), %rdx
	movq	(%rdx), %rax
	movq	%rax, 264(%rsp)
	addq	$16, %rax
	movq	%rax, (%rdx)
	movq	264(%rsp), %rax
	movq	8(%rax), %rax
	testq	%rax, %rax
	jns	.L956
	movq	264(%rsp), %rdi
	cmpq	(%rdi), %rdi
	je	.L2270
.L958:
	movq	264(%rsp), %rax
	movq	(%rax), %rax
	movq	%rax, 264(%rsp)
	movq	8(%rax), %rax
	testq	%rax, %rax
	jns	.L956
	movq	264(%rsp), %rsi
	cmpq	%rsi, (%rsi)
	jne	.L958
	jmp	.L2644
.L2100:
	cmpq	272(%rsp), %rbx
	jae	.L2590
	cmpq	256(%rsp), %rbx
	jae	.L959
.L2590:
	movq	ec_@GOTPCREL(%rip), %rax
	movq	8(%rax), %rdx
	leaq	-8(%rdx), %rcx
	movq	%rcx, 8(%rax)
	movq	%rbx, -8(%rdx)
	movq	456(%rax), %rsi
	cmpq	%rsi, 8(%rax)
	ja	.L959
	movq	%rax, %rbp
	movq	216(%rsp), %rax
	movq	%rax, 0(%rbp)
	movq	240(%rsp), %rax
	movq	%rax, 24(%rbp)
	movq	%r15, 16(%rbp)
	movq	%r13, 72(%rbp)
	orl	$1073741824, 64(%rbp)
	call	trail_ov@PLT
	andl	$-1073741825, 64(%rbp)
.L959:
	movq	264(%rsp), %rax
	movq	%rax, (%rbx)
	movq	$0, 8(%rbx)
	jmp	.L961
	.p2align 4,,10
	.p2align 3
.L2099:
	movq	264(%rsp), %rax
	movq	(%rax), %rax
	movq	%rax, 264(%rsp)
	addq	$8, %r13
	movq	224(%rsp), %r15
.L961:
	movq	%r13, %rax
	leaq	8(%r13), %r13
	movq	(%rax), %rax
	movq	256(%rsp), %rdi
	movq	%rdi, 248(%rsp)
	movq	272(%rsp), %rsi
	movq	%rsi, 280(%rsp)
	movq	240(%rsp), %r14
	movq	%r15, 232(%rsp)
	jmp	.L428
.L74:
	subq	$16, 216(%rsp)
	movq	216(%rsp), %rax
	movq	$0, 8(%rax)
	movq	264(%rsp), %rax
	addq	$16, %rax
	movq	216(%rsp), %rdi
	movq	%rax, (%rdi)
	movq	ec_@GOTPCREL(%rip), %rax
	cmpq	472(%rax), %rdi
	ja	.L77
	movq	%rdi, (%rax)
	movq	240(%rsp), %rsi
	movq	%rsi, 24(%rax)
	movq	224(%rsp), %rdi
	movq	%rdi, 16(%rax)
	movq	%r13, 72(%rax)
	orl	$1073741824, 64(%rax)
	call	local_ov@PLT
	testl	%eax, %eax
	je	.L962
	movq	256(%rsp), %rax
	movq	%rax, 248(%rsp)
	movq	272(%rsp), %rax
	movq	%rax, 280(%rsp)
	movq	240(%rsp), %r14
	movq	224(%rsp), %rax
	movq	%rax, 232(%rsp)
	jmp	.L411
	.p2align 4,,10
	.p2align 3
.L962:
	movq	ec_@GOTPCREL(%rip), %rax
	andl	$-1073741825, 64(%rax)
	jmp	.L77
.L2272:
	movq	%rdx, 264(%rsp)
.L77:
	movq	264(%rsp), %rax
	movq	8(%rax), %rax
	testq	%rax, %rax
	jns	.L963
	movq	264(%rsp), %rsi
	movq	(%rsi), %rdx
	cmpq	%rsi, %rdx
	jne	.L2272
.L963:
	cmpb	$-1, %al
	jne	.L964
	movq	ec_@GOTPCREL(%rip), %rax
	movq	264(%rsp), %rdi
	movq	%rdi, 208(%rax)
	movq	%r13, %rax
	leaq	8(%r13), %r13
	movq	(%rax), %rax
	movq	%rax, 288(%rsp)
	movq	%rdi, %r14
	movq	224(%rsp), %rbp
	movq	(%rax), %rax
	movq	%rax, 224(%rsp)
	addq	$1, %rax
	salq	$4, %rax
	addq	%rbp, %rax
	movq	%rax, 232(%rsp)
	cmpq	272(%rsp), %rdi
	jae	.L2591
	movq	256(%rsp), %rax
	cmpq	%rax, %rdi
	jae	.L965
.L2591:
	movq	ec_@GOTPCREL(%rip), %rax
	movq	8(%rax), %rdx
	leaq	-8(%rdx), %rcx
	movq	%rcx, 8(%rax)
	movq	%r14, -8(%rdx)
	movq	456(%rax), %rsi
	cmpq	%rsi, 8(%rax)
	ja	.L965
	movq	%rax, %rbx
	movq	216(%rsp), %rax
	movq	%rax, (%rbx)
	movq	240(%rsp), %rax
	movq	%rax, 24(%rbx)
	movq	232(%rsp), %rax
	movq	%rax, 16(%rbx)
	movq	%r13, 72(%rbx)
	orl	$1073741824, 64(%rbx)
	call	trail_ov@PLT
	andl	$-1073741825, 64(%rbx)
.L965:
	movq	%rbp, (%r14)
	movq	$1, 8(%r14)
	movq	288(%rsp), %rax
	movq	%rax, 0(%rbp)
	leaq	16(%rbp), %rax
	movq	%rax, 264(%rsp)
	movq	$11, 8(%rbp)
	movq	0(%r13), %r13
	jmp	.L967
.L964:
	cmpb	$1, %al
	je	.L968
	testq	%rax, %rax
	jns	.L1440
	movq	ec_@GOTPCREL(%rip), %rax
	movq	264(%rsp), %rdi
	movq	%rdi, 208(%rax)
	movq	0(%r13), %rax
	movq	%rax, 288(%rsp)
	movq	(%rax), %rax
	movq	%rax, 232(%rsp)
	addq	$1, %rax
	salq	$4, %rax
	movq	224(%rsp), %rsi
	leaq	(%rsi,%rax), %r15
	movq	288(%rsp), %rdi
	movq	%rdi, (%rsi)
	movq	$11, 8(%rsi)
	movq	8(%r13), %r13
	movq	%rsi, %r12
	movq	264(%rsp), %rbx
	leaq	16(%rsi), %rax
	movq	%rax, 264(%rsp)
	movl	$1, %r14d
	jmp	.L583
.L968:
	movq	264(%rsp), %rax
	movq	(%rax), %rdx
	movq	0(%r13), %rsi
	cmpq	%rsi, (%rdx)
	jne	.L1440
	leaq	16(%rdx), %rdi
	movq	%rdi, 264(%rsp)
	leaq	16(%r13), %r13
	movq	224(%rsp), %rax
	movq	%rax, 232(%rsp)
.L967:
	movq	%r13, %rax
	leaq	8(%r13), %r13
	movq	(%rax), %rax
	movq	256(%rsp), %rsi
	movq	%rsi, 248(%rsp)
	movq	272(%rsp), %rdi
	movq	%rdi, 280(%rsp)
	movq	240(%rsp), %r14
	jmp	.L428
.L75:
	movq	216(%rsp), %r12
	addq	8(%r13), %r12
	movq	264(%rsp), %rbx
	addq	$16, 264(%rsp)
	movq	264(%rsp), %rax
	movq	%rax, (%r12)
	movq	8(%rbx), %rax
	testq	%rax, %rax
	jns	.L969
	cmpq	(%rbx), %rbx
	je	.L969
.L970:
	movq	(%rbx), %rbx
	movq	8(%rbx), %rax
	testq	%rax, %rax
	jns	.L969
	cmpq	%rbx, (%rbx)
	jne	.L970
.L969:
	cmpb	$-1, %al
	jne	.L971
	movq	ec_@GOTPCREL(%rip), %rax
	movq	%rbx, 208(%rax)
	movq	$0, 8(%r12)
	movq	0(%r13), %rax
	movq	%rax, 288(%rsp)
	movq	224(%rsp), %r14
	movq	(%rax), %rax
	movq	%rax, 224(%rsp)
	addq	$1, %rax
	salq	$4, %rax
	addq	%r14, %rax
	movq	%rax, 232(%rsp)
	cmpq	272(%rsp), %rbx
	jae	.L2592
	cmpq	256(%rsp), %rbx
	jae	.L972
.L2592:
	movq	ec_@GOTPCREL(%rip), %rax
	movq	8(%rax), %rdx
	leaq	-8(%rdx), %rcx
	movq	%rcx, 8(%rax)
	movq	%rbx, -8(%rdx)
	movq	456(%rax), %rsi
	cmpq	%rsi, 8(%rax)
	ja	.L972
	movq	%rax, %rbp
	movq	216(%rsp), %rax
	movq	%rax, 0(%rbp)
	movq	240(%rsp), %rax
	movq	%rax, 24(%rbp)
	movq	232(%rsp), %rax
	movq	%rax, 16(%rbp)
	movq	%r13, 72(%rbp)
	orl	$1073741824, 64(%rbp)
	call	trail_ov@PLT
	andl	$-1073741825, 64(%rbp)
.L972:
	movq	%r14, (%rbx)
	movq	$1, 8(%rbx)
	movq	288(%rsp), %rax
	movq	%rax, (%r14)
	leaq	16(%r14), %rax
	movq	%rax, 264(%rsp)
	movq	$11, 8(%r14)
	movq	16(%r13), %r13
	jmp	.L974
.L971:
	cmpb	$1, %al
	je	.L975
	testq	%rax, %rax
	jns	.L1440
	movq	ec_@GOTPCREL(%rip), %rax
	movq	%rbx, 208(%rax)
	movq	$0, 8(%r12)
	movq	0(%r13), %rax
	movq	%rax, 288(%rsp)
	movq	(%rax), %rax
	movq	%rax, 232(%rsp)
	addq	$1, %rax
	salq	$4, %rax
	movq	224(%rsp), %rdi
	leaq	(%rdi,%rax), %r15
	movq	%rdi, %rax
	movq	288(%rsp), %rsi
	movq	%rsi, (%rdi)
	addq	$16, %rax
	movq	%rax, 264(%rsp)
	movq	$11, 8(%rdi)
	movq	16(%r13), %r13
	movq	%rdi, %r12
	movl	$1, %r14d
	jmp	.L583
	.p2align 4,,10
	.p2align 3
.L975:
	movq	(%rbx), %rdx
	movq	0(%r13), %rdi
	cmpq	%rdi, (%rdx)
	jne	.L1440
	leaq	16(%rdx), %rsi
	movq	%rsi, 264(%rsp)
	leaq	24(%r13), %r13
	movq	224(%rsp), %rax
	movq	%rax, 232(%rsp)
.L974:
	movq	%r13, %rax
	leaq	8(%r13), %r13
	movq	(%rax), %rax
	movq	256(%rsp), %rdi
	movq	%rdi, 248(%rsp)
	movq	272(%rsp), %rsi
	movq	%rsi, 280(%rsp)
	movq	240(%rsp), %r14
	jmp	.L428
.L76:
	movq	216(%rsp), %r12
	addq	8(%r13), %r12
	movq	(%r12), %rax
	movq	%rax, 264(%rsp)
	addq	$16, %rax
	movq	%rax, (%r12)
	movq	264(%rsp), %rax
	movq	8(%rax), %rax
	testq	%rax, %rax
	jns	.L976
	movq	264(%rsp), %rdi
	cmpq	(%rdi), %rdi
	je	.L976
.L977:
	movq	264(%rsp), %rax
	movq	(%rax), %rax
	movq	%rax, 264(%rsp)
	movq	8(%rax), %rax
	testq	%rax, %rax
	jns	.L976
	movq	264(%rsp), %rsi
	cmpq	%rsi, (%rsi)
	jne	.L977
.L976:
	cmpb	$-1, %al
	jne	.L978
	movq	ec_@GOTPCREL(%rip), %rax
	movq	264(%rsp), %rsi
	movq	%rsi, 208(%rax)
	movq	$0, 8(%r12)
	movq	0(%r13), %rax
	movq	%rax, 288(%rsp)
	movq	224(%rsp), %rbp
	movq	(%rax), %rax
	movq	%rax, 224(%rsp)
	addq	$1, %rax
	salq	$4, %rax
	addq	%rbp, %rax
	movq	%rax, 232(%rsp)
	cmpq	272(%rsp), %rsi
	jae	.L2593
	movq	256(%rsp), %rax
	cmpq	%rax, %rsi
	jae	.L979
.L2593:
	movq	ec_@GOTPCREL(%rip), %rax
	movq	8(%rax), %rdx
	leaq	-8(%rdx), %rcx
	movq	%rcx, 8(%rax)
	movq	264(%rsp), %rdi
	movq	%rdi, -8(%rdx)
	movq	456(%rax), %rsi
	cmpq	%rsi, 8(%rax)
	ja	.L979
	movq	%rax, %rbx
	movq	216(%rsp), %rax
	movq	%rax, (%rbx)
	movq	240(%rsp), %rax
	movq	%rax, 24(%rbx)
	movq	232(%rsp), %rax
	movq	%rax, 16(%rbx)
	movq	%r13, 72(%rbx)
	orl	$1073741824, 64(%rbx)
	call	trail_ov@PLT
	andl	$-1073741825, 64(%rbx)
.L979:
	movq	264(%rsp), %rax
	movq	%rbp, (%rax)
	movq	$1, 8(%rax)
	movq	288(%rsp), %rax
	movq	%rax, 0(%rbp)
	leaq	16(%rbp), %rax
	movq	%rax, 264(%rsp)
	movq	$11, 8(%rbp)
	movq	16(%r13), %r13
	jmp	.L981
.L978:
	cmpb	$1, %al
	je	.L982
	testq	%rax, %rax
	jns	.L1440
	movq	ec_@GOTPCREL(%rip), %rax
	movq	264(%rsp), %rdi
	movq	%rdi, 208(%rax)
	movq	$0, 8(%r12)
	movq	0(%r13), %rax
	movq	%rax, 288(%rsp)
	movq	(%rax), %rax
	movq	%rax, 232(%rsp)
	addq	$1, %rax
	salq	$4, %rax
	movq	224(%rsp), %rsi
	leaq	(%rsi,%rax), %r15
	movq	288(%rsp), %rdi
	movq	%rdi, (%rsi)
	movq	$11, 8(%rsi)
	movq	16(%r13), %r13
	movq	%rsi, %r12
	movq	264(%rsp), %rbx
	leaq	16(%rsi), %rax
	movq	%rax, 264(%rsp)
	movl	$1, %r14d
	jmp	.L583
	.p2align 4,,10
	.p2align 3
.L982:
	movq	264(%rsp), %rax
	movq	(%rax), %rdx
	movq	0(%r13), %rsi
	cmpq	%rsi, (%rdx)
	jne	.L1440
	leaq	16(%rdx), %rdi
	movq	%rdi, 264(%rsp)
	leaq	24(%r13), %r13
	movq	224(%rsp), %rax
	movq	%rax, 232(%rsp)
.L981:
	movq	%r13, %rax
	leaq	8(%r13), %r13
	movq	(%rax), %rax
	movq	256(%rsp), %rsi
	movq	%rsi, 248(%rsp)
	movq	272(%rsp), %rdi
	movq	%rdi, 280(%rsp)
	movq	240(%rsp), %r14
	jmp	.L428
.L38:
.L81:
	subq	$16, 216(%rsp)
	movq	216(%rsp), %rax
	movabsq	$-9223372036854775553, %rsi
	movq	%rsi, 8(%rax)
	movq	264(%rsp), %rdi
	movq	%rdi, (%rax)
	movq	ec_@GOTPCREL(%rip), %rax
	movq	216(%rsp), %rsi
	cmpq	472(%rax), %rsi
	ja	.L78
	movq	%rsi, (%rax)
	movq	240(%rsp), %rsi
	movq	%rsi, 24(%rax)
	movq	224(%rsp), %rdi
	movq	%rdi, 16(%rax)
	movq	%r13, 72(%rax)
	orl	$1073741824, 64(%rax)
	call	local_ov@PLT
	testl	%eax, %eax
	je	.L983
	movq	256(%rsp), %rax
	movq	%rax, 248(%rsp)
	movq	272(%rsp), %rax
	movq	%rax, 280(%rsp)
	movq	240(%rsp), %r14
	movq	224(%rsp), %rax
	movq	%rax, 232(%rsp)
	jmp	.L411
	.p2align 4,,10
	.p2align 3
.L983:
	movq	ec_@GOTPCREL(%rip), %rax
	andl	$-1073741825, 64(%rax)
	jmp	.L78
.L36:
.L78:
	movq	264(%rsp), %rax
	movq	%rax, (%rax)
	addq	$16, 264(%rsp)
	movabsq	$-9223372036854775553, %rsi
	movq	%rsi, 8(%rax)
	movq	%r13, %rax
	leaq	8(%r13), %r13
	movq	(%rax), %rax
	movq	256(%rsp), %rdi
	movq	%rdi, 248(%rsp)
	movq	272(%rsp), %rcx
	movq	%rcx, 280(%rsp)
	movq	240(%rsp), %r14
	movq	224(%rsp), %rsi
	movq	%rsi, 232(%rsp)
	jmp	.L428
.L351:
.L350:
	movq	%r13, %rax
	leaq	8(%r13), %r13
	movq	264(%rsp), %rcx
	addq	(%rax), %rcx
	cmpq	264(%rsp), %rcx
	jbe	.L984
	movq	264(%rsp), %rax
	movabsq	$-9223372036854775553, %rdx
.L985:
	movq	%rax, (%rax)
	leaq	16(%rax), %rdi
	movq	%rdi, 264(%rsp)
	movq	%rdx, 8(%rax)
	cmpq	%rdi, %rcx
	jbe	.L984
	movq	%rdi, %rax
	jmp	.L985
.L984:
	movq	%r13, %rax
	leaq	8(%r13), %r13
	movq	(%rax), %rax
	movq	256(%rsp), %rdi
	movq	%rdi, 248(%rsp)
	movq	272(%rsp), %rcx
	movq	%rcx, 280(%rsp)
	movq	240(%rsp), %r14
	movq	224(%rsp), %rsi
	movq	%rsi, 232(%rsp)
	jmp	.L428
.L370:
	movq	%r13, %rax
	leaq	8(%r13), %r13
	movq	(%rax), %rdx
	movq	264(%rsp), %rax
	movq	%rax, (%rdx)
	movabsq	$-9223372036854775553, %rax
	movq	%rax, 8(%rdx)
	movq	264(%rsp), %rdi
	movq	%rdi, (%rdi)
	addq	$16, 264(%rsp)
	movq	%rax, 8(%rdi)
	jmp	.L79
.L40:
.L79:
	movq	%r13, %rax
	movq	0(%r13), %rcx
	movq	264(%rsp), %rsi
	movq	%rsi, (%rcx)
	movabsq	$-9223372036854775553, %rdx
	movq	%rdx, 8(%rcx)
	movq	%rsi, %rcx
	movq	%rsi, (%rcx)
	addq	$16, 264(%rsp)
	movq	%rdx, 8(%rsi)
	leaq	16(%r13), %r13
	addq	$8, %rax
	movq	(%rax), %rax
	movq	256(%rsp), %rdi
	movq	%rdi, 248(%rsp)
	movq	272(%rsp), %rcx
	movq	%rcx, 280(%rsp)
	movq	240(%rsp), %r14
	movq	224(%rsp), %rsi
	movq	%rsi, 232(%rsp)
	jmp	.L428
.L369:
	movq	%r13, %rdx
	movq	0(%r13), %rcx
	movq	264(%rsp), %rax
	movq	%rax, (%rcx)
	movabsq	$-9223372036854775553, %rax
	movq	%rax, 8(%rcx)
	movq	264(%rsp), %rdi
	movq	%rdi, (%rdi)
	movq	%rdi, %rcx
	addq	$16, %rcx
	movq	%rax, 8(%rdi)
	movq	240(%rsp), %rsi
	subq	8(%r13), %rsi
	movq	%rcx, (%rsi)
	movq	%rax, 8(%rsi)
	movq	%rcx, 16(%rdi)
	addq	$32, 264(%rsp)
	movq	%rax, 24(%rdi)
	leaq	24(%r13), %r13
	movq	16(%rdx), %rax
	movq	256(%rsp), %rdi
	movq	%rdi, 248(%rsp)
	movq	272(%rsp), %rcx
	movq	%rcx, 280(%rsp)
	movq	240(%rsp), %r14
	movq	224(%rsp), %rdi
	movq	%rdi, 232(%rsp)
	jmp	.L428
.L42:
	movq	216(%rsp), %rax
	leaq	-8(%rax), %r14
	movq	240(%rsp), %rcx
	movq	%rcx, -8(%rax)
	movq	%r13, %rax
	leaq	8(%r13), %r13
	movq	%r14, %rdi
	subq	(%rax), %rdi
	movq	%rdi, 216(%rsp)
	movq	%r14, 240(%rsp)
	movq	ec_@GOTPCREL(%rip), %rax
	cmpq	472(%rax), %rdi
	ja	.L80
	movq	%rdi, (%rax)
	movq	%r14, 24(%rax)
	movq	224(%rsp), %rcx
	movq	%rcx, 16(%rax)
	movq	%r13, 72(%rax)
	orl	$1073741824, 64(%rax)
	call	local_ov@PLT
	testl	%eax, %eax
	je	.L986
	movq	256(%rsp), %rax
	movq	%rax, 248(%rsp)
	movq	272(%rsp), %rax
	movq	%rax, 280(%rsp)
	movq	224(%rsp), %rax
	movq	%rax, 232(%rsp)
	jmp	.L411
	.p2align 4,,10
	.p2align 3
.L986:
	movq	ec_@GOTPCREL(%rip), %rax
	andl	$-1073741825, 64(%rax)
	movq	%r14, 240(%rsp)
	jmp	.L80
.L44:
.L80:
	movq	%r13, %rax
	movq	240(%rsp), %rcx
	subq	0(%r13), %rcx
	movq	264(%rsp), %rsi
	movq	%rsi, (%rcx)
	movabsq	$-9223372036854775553, %rdx
	movq	%rdx, 8(%rcx)
	movq	%rsi, %rdi
	movq	%rsi, (%rdi)
	addq	$16, 264(%rsp)
	movq	%rdx, 8(%rsi)
	leaq	16(%r13), %r13
	addq	$8, %rax
	movq	(%rax), %rax
	movq	256(%rsp), %rcx
	movq	%rcx, 248(%rsp)
	movq	272(%rsp), %rsi
	movq	%rsi, 280(%rsp)
	movq	240(%rsp), %r14
	movq	224(%rsp), %rdi
	movq	%rdi, 232(%rsp)
	jmp	.L428
.L371:
	movq	%r13, %rdx
	movq	240(%rsp), %rcx
	subq	0(%r13), %rcx
	movq	264(%rsp), %rax
	movq	%rax, (%rcx)
	movabsq	$-9223372036854775553, %rax
	movq	%rax, 8(%rcx)
	movq	264(%rsp), %rcx
	movq	%rcx, (%rcx)
	movq	%rcx, %rsi
	addq	$16, %rsi
	movq	%rax, 8(%rcx)
	movq	%rsi, 16(%rcx)
	movq	%rax, 24(%rcx)
	movq	240(%rsp), %rcx
	subq	8(%r13), %rcx
	addq	$32, 264(%rsp)
	movq	%rsi, (%rcx)
	movq	%rax, 8(%rcx)
	leaq	24(%r13), %r13
	movq	16(%rdx), %rax
	movq	256(%rsp), %rsi
	movq	%rsi, 248(%rsp)
	movq	272(%rsp), %rcx
	movq	%rcx, 280(%rsp)
	movq	240(%rsp), %r14
	movq	224(%rsp), %rsi
	movq	%rsi, 232(%rsp)
	jmp	.L428
.L91:
	movq	%r13, %rax
	leaq	8(%r13), %r13
	movq	240(%rsp), %rbp
	subq	(%rax), %rbp
	cmpq	%rbp, 272(%rsp)
	ja	.L987
	movq	ec_@GOTPCREL(%rip), %rax
	movq	8(%rax), %rdx
	leaq	-8(%rdx), %rcx
	movq	%rcx, 8(%rax)
	movq	%rbp, -8(%rdx)
	movq	456(%rax), %rdi
	cmpq	%rdi, 8(%rax)
	ja	.L987
	movq	%rax, %rbx
	movq	216(%rsp), %rax
	movq	%rax, (%rbx)
	movq	240(%rsp), %rax
	movq	%rax, 24(%rbx)
	movq	224(%rsp), %rax
	movq	%rax, 16(%rbx)
	movq	%r13, 72(%rbx)
	orl	$1073741824, 64(%rbx)
	call	trail_ov@PLT
	andl	$-1073741825, 64(%rbx)
.L987:
	movq	264(%rsp), %rax
	movq	%rax, 0(%rbp)
	movq	%rax, (%rax)
	addq	$16, 264(%rsp)
	movabsq	$-9223372036854775553, %rcx
	movq	%rcx, 8(%rax)
	movq	%r13, %rax
	leaq	8(%r13), %r13
	movq	(%rax), %rax
	movq	256(%rsp), %rsi
	movq	%rsi, 248(%rsp)
	movq	272(%rsp), %rdi
	movq	%rdi, 280(%rsp)
	movq	240(%rsp), %r14
	movq	224(%rsp), %rcx
	movq	%rcx, 232(%rsp)
	jmp	.L428
.L219:
	subq	$16, 216(%rsp)
	movq	216(%rsp), %rax
	movabsq	$-9223372036854775553, %rsi
	movq	%rsi, 8(%rax)
	movq	264(%rsp), %rdi
	movq	%rdi, (%rax)
	movq	ec_@GOTPCREL(%rip), %rax
	movq	216(%rsp), %rcx
	cmpq	472(%rax), %rcx
	ja	.L218
	movq	%rcx, (%rax)
	movq	240(%rsp), %rdi
	movq	%rdi, 24(%rax)
	movq	224(%rsp), %rcx
	movq	%rcx, 16(%rax)
	movq	%r13, 72(%rax)
	orl	$1073741824, 64(%rax)
	call	local_ov@PLT
	testl	%eax, %eax
	je	.L988
	movq	256(%rsp), %rax
	movq	%rax, 248(%rsp)
	movq	272(%rsp), %rax
	movq	%rax, 280(%rsp)
	movq	240(%rsp), %r14
	movq	224(%rsp), %rax
	movq	%rax, 232(%rsp)
	jmp	.L411
	.p2align 4,,10
	.p2align 3
.L988:
	movq	ec_@GOTPCREL(%rip), %rax
	andl	$-1073741825, 64(%rax)
.L218:
	movq	264(%rsp), %rax
	movq	%rax, (%rax)
	movq	%rax, %rdx
	addq	$16, 264(%rsp)
	movq	%r13, %rax
	movq	0(%r13), %rcx
	movq	%rcx, 8(%rdx)
	leaq	16(%r13), %r13
	addq	$8, %rax
	movq	(%rax), %rax
	movq	256(%rsp), %rsi
	movq	%rsi, 248(%rsp)
	movq	272(%rsp), %rdi
	movq	%rdi, 280(%rsp)
	movq	240(%rsp), %r14
	movq	224(%rsp), %rcx
	movq	%rcx, 232(%rsp)
	jmp	.L428
.L220:
	movq	%r13, %rax
	movq	0(%r13), %rdx
	movq	264(%rsp), %rsi
	movq	%rsi, (%rdx)
	movabsq	$-9223372036854775553, %rdi
	movq	%rdi, 8(%rdx)
	movq	%rsi, %rcx
	movq	%rsi, (%rcx)
	addq	$16, 264(%rsp)
	movq	8(%r13), %rcx
	movq	%rcx, 8(%rsi)
	leaq	24(%r13), %r13
	addq	$16, %rax
	movq	(%rax), %rax
	movq	256(%rsp), %rsi
	movq	%rsi, 248(%rsp)
	movq	272(%rsp), %rdi
	movq	%rdi, 280(%rsp)
	movq	240(%rsp), %r14
	movq	224(%rsp), %rcx
	movq	%rcx, 232(%rsp)
	jmp	.L428
.L222:
	movq	216(%rsp), %rax
	leaq	-8(%rax), %r14
	movq	240(%rsp), %rsi
	movq	%rsi, -8(%rax)
	movq	%r13, %rax
	leaq	8(%r13), %r13
	movq	%r14, %rdi
	subq	(%rax), %rdi
	movq	%rdi, 216(%rsp)
	movq	%r14, 240(%rsp)
	movq	ec_@GOTPCREL(%rip), %rax
	cmpq	472(%rax), %rdi
	ja	.L221
	movq	%rdi, (%rax)
	movq	%r14, 24(%rax)
	movq	224(%rsp), %rsi
	movq	%rsi, 16(%rax)
	movq	%r13, 72(%rax)
	orl	$1073741824, 64(%rax)
	call	local_ov@PLT
	testl	%eax, %eax
	je	.L989
	movq	256(%rsp), %rax
	movq	%rax, 248(%rsp)
	movq	272(%rsp), %rax
	movq	%rax, 280(%rsp)
	movq	224(%rsp), %rax
	movq	%rax, 232(%rsp)
	jmp	.L411
	.p2align 4,,10
	.p2align 3
.L989:
	movq	ec_@GOTPCREL(%rip), %rax
	andl	$-1073741825, 64(%rax)
	movq	%r14, 240(%rsp)
.L221:
	movq	%r13, %rax
	movq	240(%rsp), %rdx
	subq	0(%r13), %rdx
	movq	264(%rsp), %rdi
	movq	%rdi, (%rdx)
	movabsq	$-9223372036854775553, %rcx
	movq	%rcx, 8(%rdx)
	movq	%rdi, %rsi
	movq	%rdi, (%rsi)
	addq	$16, 264(%rsp)
	movq	8(%r13), %rcx
	movq	%rcx, 8(%rdi)
	leaq	24(%r13), %r13
	addq	$16, %rax
	movq	(%rax), %rax
	movq	256(%rsp), %rdi
	movq	%rdi, 248(%rsp)
	movq	272(%rsp), %rcx
	movq	%rcx, 280(%rsp)
	movq	240(%rsp), %r14
	movq	224(%rsp), %rsi
	movq	%rsi, 232(%rsp)
	jmp	.L428
.L225:
	movq	264(%rsp), %rax
	movq	%rax, (%rax)
	movq	%rax, %rdx
	addq	$16, 264(%rsp)
	movq	%r13, %rax
	movq	0(%r13), %rcx
	movq	%rcx, 8(%rdx)
	leaq	16(%r13), %r13
	addq	$8, %rax
	movq	(%rax), %rax
	movq	256(%rsp), %rdi
	movq	%rdi, 248(%rsp)
	movq	272(%rsp), %rcx
	movq	%rcx, 280(%rsp)
	movq	240(%rsp), %r14
	movq	224(%rsp), %rsi
	movq	%rsi, 232(%rsp)
	jmp	.L428
.L226:
	movq	264(%rsp), %rax
	movabsq	$-9223372036854775553, %rdi
	movq	%rdi, 8(%rax)
	addq	$16, 264(%rsp)
	movq	224(%rsp), %rcx
	movq	%rcx, (%rax)
	movq	%r13, %rax
	movq	%rcx, %rsi
	addq	0(%r13), %rsi
	movq	%rsi, 232(%rsp)
	leaq	16(%r13), %r13
	movq	8(%rax), %rax
	movq	256(%rsp), %rsi
	movq	%rsi, 248(%rsp)
	movq	272(%rsp), %rdi
	movq	%rdi, 280(%rsp)
	movq	240(%rsp), %r14
	jmp	.L428
.L227:
	subq	$16, 216(%rsp)
	movabsq	$-9223372036854775553, %rax
	movq	264(%rsp), %rcx
	movq	%rax, 8(%rcx)
	movq	216(%rsp), %rsi
	movq	%rax, 8(%rsi)
	addq	$16, 264(%rsp)
	movq	224(%rsp), %rdi
	movq	%rdi, (%rcx)
	movq	%rsi, %rax
	movq	%rdi, (%rax)
	movq	%r13, %rax
	leaq	8(%r13), %r13
	addq	(%rax), %rdi
	movq	%rdi, 232(%rsp)
	movq	ec_@GOTPCREL(%rip), %rax
	cmpq	472(%rax), %rsi
	ja	.L990
	movq	%rsi, (%rax)
	movq	240(%rsp), %rcx
	movq	%rcx, 24(%rax)
	movq	232(%rsp), %rsi
	movq	%rsi, 16(%rax)
	movq	%r13, 72(%rax)
	orl	$1073741824, 64(%rax)
	call	local_ov@PLT
	testl	%eax, %eax
	je	.L991
	movq	256(%rsp), %rax
	movq	%rax, 248(%rsp)
	movq	272(%rsp), %rax
	movq	%rax, 280(%rsp)
	movq	240(%rsp), %r14
	jmp	.L411
	.p2align 4,,10
	.p2align 3
.L991:
	movq	ec_@GOTPCREL(%rip), %rax
	andl	$-1073741825, 64(%rax)
.L990:
	movq	%r13, %rax
	leaq	8(%r13), %r13
	movq	(%rax), %rax
	movq	256(%rsp), %rdi
	movq	%rdi, 248(%rsp)
	movq	272(%rsp), %rcx
	movq	%rcx, 280(%rsp)
	movq	240(%rsp), %r14
	jmp	.L428
.L228:
	movq	%r13, %rax
	movq	0(%r13), %rdx
	movq	264(%rsp), %rsi
	movq	224(%rsp), %rdi
	movq	%rdi, (%rsi)
	movq	%rdi, (%rdx)
	addq	$16, 264(%rsp)
	movabsq	$-9223372036854775553, %rcx
	movq	%rcx, 8(%rsi)
	movq	%rcx, 8(%rdx)
	movq	%rdi, %rsi
	addq	8(%r13), %rsi
	movq	%rsi, 232(%rsp)
	leaq	24(%r13), %r13
	addq	$8, %rax
	movq	8(%rax), %rax
	movq	256(%rsp), %rsi
	movq	%rsi, 248(%rsp)
	movq	272(%rsp), %rdi
	movq	%rdi, 280(%rsp)
	movq	240(%rsp), %r14
	jmp	.L428
.L229:
	movq	%r13, %rax
	movq	240(%rsp), %rdx
	subq	0(%r13), %rdx
	movq	264(%rsp), %rcx
	movq	224(%rsp), %rsi
	movq	%rsi, (%rcx)
	movq	%rsi, %rdi
	movq	%rsi, (%rdx)
	movq	%rcx, %rsi
	addq	$16, 264(%rsp)
	movabsq	$-9223372036854775553, %rcx
	movq	%rcx, 8(%rsi)
	movq	%rcx, 8(%rdx)
	addq	8(%r13), %rdi
	movq	%rdi, 232(%rsp)
	leaq	24(%r13), %r13
	addq	$8, %rax
	movq	8(%rax), %rax
	movq	256(%rsp), %rcx
	movq	%rcx, 248(%rsp)
	movq	272(%rsp), %rsi
	movq	%rsi, 280(%rsp)
	movq	240(%rsp), %r14
	jmp	.L428
.L257:
	movq	%r13, %rax
	leaq	8(%r13), %r13
	movq	240(%rsp), %rbp
	subq	(%rax), %rbp
	cmpq	%rbp, 272(%rsp)
	ja	.L992
	movq	ec_@GOTPCREL(%rip), %rax
	movq	8(%rax), %rdx
	leaq	-8(%rdx), %rcx
	movq	%rcx, 8(%rax)
	movq	%rbp, -8(%rdx)
	movq	456(%rax), %rdi
	cmpq	%rdi, 8(%rax)
	ja	.L992
	movq	%rax, %rbx
	movq	216(%rsp), %rax
	movq	%rax, (%rbx)
	movq	240(%rsp), %rax
	movq	%rax, 24(%rbx)
	movq	224(%rsp), %rax
	movq	%rax, 16(%rbx)
	movq	%r13, 72(%rbx)
	orl	$1073741824, 64(%rbx)
	call	trail_ov@PLT
	andl	$-1073741825, 64(%rbx)
.L992:
	movq	264(%rsp), %rax
	movq	224(%rsp), %rcx
	movq	%rcx, (%rax)
	movq	%rcx, 0(%rbp)
	movq	264(%rsp), %rax
	addq	$16, 264(%rsp)
	movabsq	$-9223372036854775553, %rsi
	movq	%rsi, 8(%rax)
	movq	%r13, %rax
	movq	%rcx, %rsi
	addq	0(%r13), %rsi
	movq	%rsi, 232(%rsp)
	leaq	16(%r13), %r13
	movq	8(%rax), %rax
	movq	256(%rsp), %rdi
	movq	%rdi, 248(%rsp)
	movq	272(%rsp), %rcx
	movq	%rcx, 280(%rsp)
	movq	240(%rsp), %r14
	jmp	.L428
.L46:
.L82:
	movq	%r13, %rax
	leaq	8(%r13), %r13
	movq	(%rax), %rbx
	movq	ec_@GOTPCREL(%rip), %rax
	cmpq	$0, 200(%rax)
	je	.L993
	movq	$0, 200(%rax)
	cmpq	$0, 8(%rbx)
	jns	.L2275
	cmpq	(%rbx), %rbx
	je	.L2276
	movq	%rbx, %rax
.L995:
	movq	(%rax), %rax
	cmpq	$0, 8(%rax)
	jns	.L994
	cmpq	%rax, (%rax)
	jne	.L995
	jmp	.L994
.L2275:
	movq	%rbx, %rax
	.p2align 4,,5
	jmp	.L994
.L2276:
	movq	%rbx, %rax
.L994:
	cmpb	$1, 8(%rax)
	ja	.L993
	movq	ec_@GOTPCREL(%rip), %rdx
	movq	208(%rdx), %rdx
	testq	%rdx, %rdx
	je	.L993
	movq	%rax, %rsi
	movq	%rdx, %rdi
	xorl	%eax, %eax
	call	occurs_compound@PLT
	testl	%eax, %eax
	jne	.L1440
.L993:
	movq	264(%rsp), %rax
	addq	$16, 264(%rsp)
	movq	(%rbx), %rdx
	movq	8(%rbx), %rcx
	movq	%rdx, (%rax)
	movq	%rcx, 8(%rax)
	movq	%r13, %rax
	leaq	8(%r13), %r13
	movq	(%rax), %rax
	movq	256(%rsp), %rsi
	movq	%rsi, 248(%rsp)
	movq	272(%rsp), %rdi
	movq	%rdi, 280(%rsp)
	movq	240(%rsp), %r14
	movq	224(%rsp), %rcx
	movq	%rcx, 232(%rsp)
	jmp	.L428
.L50:
.L83:
	movq	%r13, %rax
	leaq	8(%r13), %r13
	movq	240(%rsp), %rbx
	subq	(%rax), %rbx
	movq	ec_@GOTPCREL(%rip), %rax
	cmpq	$0, 200(%rax)
	je	.L996
	movq	$0, 200(%rax)
	cmpq	$0, 8(%rbx)
	jns	.L2277
	cmpq	(%rbx), %rbx
	je	.L2278
	movq	%rbx, %rax
.L998:
	movq	(%rax), %rax
	cmpq	$0, 8(%rax)
	jns	.L997
	cmpq	%rax, (%rax)
	jne	.L998
	jmp	.L997
.L2277:
	movq	%rbx, %rax
	.p2align 4,,5
	jmp	.L997
.L2278:
	movq	%rbx, %rax
.L997:
	cmpb	$1, 8(%rax)
	ja	.L996
	movq	ec_@GOTPCREL(%rip), %rdx
	movq	208(%rdx), %rdx
	testq	%rdx, %rdx
	je	.L996
	movq	%rax, %rsi
	movq	%rdx, %rdi
	xorl	%eax, %eax
	call	occurs_compound@PLT
	testl	%eax, %eax
	jne	.L1440
.L996:
	movq	264(%rsp), %rax
	addq	$16, 264(%rsp)
	movq	(%rbx), %rdx
	movq	8(%rbx), %rcx
	movq	%rdx, (%rax)
	movq	%rcx, 8(%rax)
	movq	%r13, %rax
	leaq	8(%r13), %r13
	movq	(%rax), %rax
	movq	256(%rsp), %rsi
	movq	%rsi, 248(%rsp)
	movq	272(%rsp), %rdi
	movq	%rdi, 280(%rsp)
	movq	240(%rsp), %r14
	movq	224(%rsp), %rcx
	movq	%rcx, 232(%rsp)
	jmp	.L428
.L54:
.L84:
	movq	%r13, %rax
	leaq	8(%r13), %r13
	movq	216(%rsp), %rbx
	addq	(%rax), %rbx
	movq	ec_@GOTPCREL(%rip), %rax
	cmpq	$0, 200(%rax)
	je	.L999
	movq	$0, 200(%rax)
	cmpq	$0, 8(%rbx)
	jns	.L2279
	cmpq	(%rbx), %rbx
	je	.L2280
	movq	%rbx, %rax
.L1001:
	movq	(%rax), %rax
	cmpq	$0, 8(%rax)
	jns	.L1000
	cmpq	%rax, (%rax)
	jne	.L1001
	jmp	.L1000
.L2279:
	movq	%rbx, %rax
	.p2align 4,,5
	jmp	.L1000
.L2280:
	movq	%rbx, %rax
.L1000:
	cmpb	$1, 8(%rax)
	ja	.L999
	movq	ec_@GOTPCREL(%rip), %rdx
	movq	208(%rdx), %rdx
	testq	%rdx, %rdx
	je	.L999
	movq	%rax, %rsi
	movq	%rdx, %rdi
	xorl	%eax, %eax
	call	occurs_compound@PLT
	testl	%eax, %eax
	jne	.L1440
.L999:
	movq	264(%rsp), %rax
	addq	$16, 264(%rsp)
	movq	(%rbx), %rdx
	movq	8(%rbx), %rcx
	movq	%rdx, (%rax)
	movq	%rcx, 8(%rax)
	movq	%r13, %rax
	leaq	8(%r13), %r13
	movq	(%rax), %rax
	movq	256(%rsp), %rsi
	movq	%rsi, 248(%rsp)
	movq	272(%rsp), %rdi
	movq	%rdi, 280(%rsp)
	movq	240(%rsp), %r14
	movq	224(%rsp), %rcx
	movq	%rcx, 232(%rsp)
	jmp	.L428
.L269:
	movq	264(%rsp), %rax
	movabsq	$-9223372036854775553, %rsi
	movq	%rsi, 8(%rax)
	movq	%r13, %rax
	movq	264(%rsp), %rdx
	addq	0(%r13), %rdx
	movq	264(%rsp), %rdi
	movq	%rdx, (%rdi)
	addq	$16, 264(%rsp)
	leaq	16(%r13), %r13
	addq	$8, %rax
	movq	(%rax), %rax
	movq	256(%rsp), %rcx
	movq	%rcx, 248(%rsp)
	movq	272(%rsp), %rsi
	movq	%rsi, 280(%rsp)
	movq	240(%rsp), %r14
	movq	224(%rsp), %rdi
	movq	%rdi, 232(%rsp)
	jmp	.L428
.L85:
	movq	%r13, %rax
	leaq	8(%r13), %r13
	movq	(%rax), %rbx
.L1008:
	cmpq	$0, 8(%rbx)
	jns	.L1002
	cmpq	(%rbx), %rbx
	je	.L1003
.L1005:
	movq	(%rbx), %rbx
	cmpq	$0, 8(%rbx)
	jns	.L1002
	cmpq	%rbx, (%rbx)
	jne	.L1005
.L1003:
	cmpq	$0, 8(%rbx)
	jns	.L1002
	cmpq	%rbx, 216(%rsp)
	ja	.L1002
	cmpq	%rbx, 272(%rsp)
	ja	.L1006
	movq	ec_@GOTPCREL(%rip), %rax
	movq	8(%rax), %rdx
	leaq	-8(%rdx), %rcx
	movq	%rcx, 8(%rax)
	movq	%rbx, -8(%rdx)
	movq	456(%rax), %rcx
	cmpq	%rcx, 8(%rax)
	ja	.L1006
	movq	%rax, %rbp
	movq	216(%rsp), %rax
	movq	%rax, 0(%rbp)
	movq	240(%rsp), %rax
	movq	%rax, 24(%rbp)
	movq	224(%rsp), %rax
	movq	%rax, 16(%rbp)
	movq	%r13, 72(%rbp)
	orl	$1073741824, 64(%rbp)
	call	trail_ov@PLT
	andl	$-1073741825, 64(%rbp)
.L1006:
	movq	264(%rsp), %rax
	movq	%rax, (%rbx)
	movq	%rax, (%rax)
	addq	$16, 264(%rsp)
	movabsq	$-9223372036854775553, %rsi
	movq	%rsi, 8(%rax)
	jmp	.L1007
.L1002:
	movq	264(%rsp), %rax
	addq	$16, 264(%rsp)
	movq	(%rbx), %rdx
	movq	8(%rbx), %rcx
	movq	%rdx, (%rax)
	movq	%rcx, 8(%rax)
.L1007:
	movq	%r13, %rax
	leaq	8(%r13), %r13
	movq	(%rax), %rax
	movq	256(%rsp), %rdi
	movq	%rdi, 248(%rsp)
	movq	272(%rsp), %rcx
	movq	%rcx, 280(%rsp)
	movq	240(%rsp), %r14
	movq	224(%rsp), %rsi
	movq	%rsi, 232(%rsp)
	jmp	.L428
.L86:
	movq	%r13, %rax
	leaq	8(%r13), %r13
	movq	240(%rsp), %rbx
	subq	(%rax), %rbx
	jmp	.L1008
.L87:
	movq	%r13, %rax
	leaq	8(%r13), %r13
	movq	216(%rsp), %rbx
	addq	(%rax), %rbx
	jmp	.L1008
.L49:
	movq	%r13, %rax
	leaq	8(%r13), %r13
	movq	(%rax), %rbx
.L1018:
	cmpq	$0, 8(%rbx)
	jns	.L1009
	cmpq	(%rbx), %rbx
	je	.L1010
.L1012:
	movq	(%rbx), %rbx
	cmpq	$0, 8(%rbx)
	jns	.L1009
	cmpq	%rbx, (%rbx)
	jne	.L1012
.L1010:
	cmpq	$0, 8(%rbx)
	jns	.L1009
	cmpq	%rbx, 216(%rsp)
	ja	.L1009
	cmpq	%rbx, 272(%rsp)
	ja	.L1013
	movq	ec_@GOTPCREL(%rip), %rax
	movq	8(%rax), %rdx
	leaq	-8(%rdx), %rcx
	movq	%rcx, 8(%rax)
	movq	%rbx, -8(%rdx)
	movq	456(%rax), %rdi
	cmpq	%rdi, 8(%rax)
	ja	.L1013
	movq	%rax, %rbp
	movq	216(%rsp), %rax
	movq	%rax, 0(%rbp)
	movq	240(%rsp), %rax
	movq	%rax, 24(%rbp)
	movq	224(%rsp), %rax
	movq	%rax, 16(%rbp)
	movq	%r13, 72(%rbp)
	orl	$1073741824, 64(%rbp)
	call	trail_ov@PLT
	andl	$-1073741825, 64(%rbp)
.L1013:
	movq	264(%rsp), %rax
	movq	%rax, (%rbx)
	movq	%rax, (%rax)
	addq	$16, 264(%rsp)
	movabsq	$-9223372036854775553, %rcx
	movq	%rcx, 8(%rax)
	jmp	.L1014
.L1009:
	movq	ec_@GOTPCREL(%rip), %rax
	cmpq	$0, 200(%rax)
	je	.L1015
	movq	$0, 200(%rax)
	cmpq	$0, 8(%rbx)
	jns	.L2281
	cmpq	%rbx, (%rbx)
	je	.L2282
	movq	%rbx, %rax
.L1017:
	movq	(%rax), %rax
	cmpq	$0, 8(%rax)
	jns	.L1016
	cmpq	%rax, (%rax)
	jne	.L1017
	jmp	.L1016
.L2281:
	movq	%rbx, %rax
	.p2align 4,,5
	jmp	.L1016
.L2282:
	movq	%rbx, %rax
.L1016:
	cmpb	$1, 8(%rax)
	ja	.L1015
	movq	ec_@GOTPCREL(%rip), %rdx
	movq	208(%rdx), %rdx
	testq	%rdx, %rdx
	je	.L1015
	movq	%rax, %rsi
	movq	%rdx, %rdi
	xorl	%eax, %eax
	call	occurs_compound@PLT
	testl	%eax, %eax
	jne	.L1440
.L1015:
	movq	264(%rsp), %rax
	addq	$16, 264(%rsp)
	movq	(%rbx), %rdx
	movq	8(%rbx), %rcx
	movq	%rdx, (%rax)
	movq	%rcx, 8(%rax)
.L1014:
	movq	ec_@GOTPCREL(%rip), %rax
	movq	$0, 200(%rax)
	movq	%r13, %rax
	leaq	8(%r13), %r13
	movq	(%rax), %rax
	movq	256(%rsp), %rsi
	movq	%rsi, 248(%rsp)
	movq	272(%rsp), %rdi
	movq	%rdi, 280(%rsp)
	movq	240(%rsp), %r14
	movq	224(%rsp), %rcx
	movq	%rcx, 232(%rsp)
	jmp	.L428
.L53:
	movq	%r13, %rax
	leaq	8(%r13), %r13
	movq	240(%rsp), %rbx
	subq	(%rax), %rbx
	jmp	.L1018
.L57:
	movq	%r13, %rax
	leaq	8(%r13), %r13
	movq	216(%rsp), %rbx
	addq	(%rax), %rbx
	jmp	.L1018
.L374:
	movq	%r13, %rax
	movq	0(%r13), %rbx
	leaq	16(%r13), %r13
	movq	8(%rax), %r12
.L1019:
	cmpq	$0, 8(%rbx)
	jns	.L1020
	cmpq	(%rbx), %rbx
	je	.L1021
.L1023:
	movq	(%rbx), %rbx
	cmpq	$0, 8(%rbx)
	jns	.L1020
	cmpq	%rbx, (%rbx)
	jne	.L1023
.L1021:
	cmpq	$0, 8(%rbx)
	jns	.L1020
	cmpq	%rbx, 216(%rsp)
	ja	.L1020
	cmpq	%rbx, 272(%rsp)
	ja	.L1024
	movq	ec_@GOTPCREL(%rip), %rax
	movq	8(%rax), %rdx
	leaq	-8(%rdx), %rcx
	movq	%rcx, 8(%rax)
	movq	%rbx, -8(%rdx)
	movq	456(%rax), %rsi
	cmpq	%rsi, 8(%rax)
	ja	.L1024
	movq	%rax, %rbp
	movq	216(%rsp), %rax
	movq	%rax, 0(%rbp)
	movq	240(%rsp), %rax
	movq	%rax, 24(%rbp)
	movq	224(%rsp), %rax
	movq	%rax, 16(%rbp)
	movq	%r13, 72(%rbp)
	orl	$1073741824, 64(%rbp)
	call	trail_ov@PLT
	andl	$-1073741825, 64(%rbp)
.L1024:
	movq	264(%rsp), %rax
	movq	%rax, (%rbx)
	movq	%rax, (%rax)
	leaq	16(%rax), %rbp
	movabsq	$-9223372036854775553, %rdi
	movq	%rdi, 8(%rax)
.L1028:
	cmpq	$0, 8(%r12)
	jns	.L1025
	cmpq	(%r12), %r12
	jne	.L2601
	jmp	.L1027
	.p2align 4,,10
	.p2align 3
.L1020:
	movq	264(%rsp), %rax
	leaq	16(%rax), %rbp
	movq	(%rbx), %rax
	movq	8(%rbx), %rdx
	movq	264(%rsp), %rcx
	movq	%rax, (%rcx)
	movq	%rdx, 8(%rcx)
	jmp	.L1028
.L2601:
	movq	(%r12), %r12
	cmpq	$0, 8(%r12)
	jns	.L1025
	cmpq	%r12, (%r12)
	jne	.L2601
.L1027:
	cmpq	$0, 8(%r12)
	jns	.L1025
	cmpq	%r12, 216(%rsp)
	ja	.L1025
	cmpq	%r12, 272(%rsp)
	ja	.L1031
	movq	ec_@GOTPCREL(%rip), %rax
	movq	8(%rax), %rdx
	leaq	-8(%rdx), %rcx
	movq	%rcx, 8(%rax)
	movq	%r12, -8(%rdx)
	movq	456(%rax), %rsi
	cmpq	%rsi, 8(%rax)
	ja	.L1031
	movq	%rax, %rbx
	movq	216(%rsp), %rax
	movq	%rax, (%rbx)
	movq	240(%rsp), %rax
	movq	%rax, 24(%rbx)
	movq	224(%rsp), %rax
	movq	%rax, 16(%rbx)
	movq	%r13, 72(%rbx)
	orl	$1073741824, 64(%rbx)
	call	trail_ov@PLT
	andl	$-1073741825, 64(%rbx)
.L1031:
	movq	%rbp, (%r12)
	movq	%rbp, 0(%rbp)
	leaq	16(%rbp), %rax
	movq	%rax, 264(%rsp)
	movabsq	$-9223372036854775553, %rax
	movq	%rax, 8(%rbp)
	jmp	.L1032
.L1025:
	leaq	16(%rbp), %rax
	movq	%rax, 264(%rsp)
	movq	(%r12), %rax
	movq	8(%r12), %rdx
	movq	%rax, 0(%rbp)
	movq	%rdx, 8(%rbp)
.L1032:
	movq	%r13, %rax
	leaq	8(%r13), %r13
	movq	(%rax), %rax
	movq	256(%rsp), %rdi
	movq	%rdi, 248(%rsp)
	movq	272(%rsp), %rcx
	movq	%rcx, 280(%rsp)
	movq	240(%rsp), %r14
	movq	224(%rsp), %rsi
	movq	%rsi, 232(%rsp)
	jmp	.L428
.L375:
	movq	%r13, %rax
	movq	240(%rsp), %rbx
	subq	0(%r13), %rbx
	leaq	16(%r13), %r13
	movq	240(%rsp), %r12
	subq	8(%rax), %r12
	jmp	.L1019
.L372:
	movq	%r13, %rax
	movq	0(%r13), %rbx
	leaq	16(%r13), %r13
	movq	8(%rax), %r12
.L1033:
	cmpq	$0, 8(%rbx)
	jns	.L1034
	cmpq	(%rbx), %rbx
	je	.L1035
.L1037:
	movq	(%rbx), %rbx
	cmpq	$0, 8(%rbx)
	jns	.L1034
	cmpq	%rbx, (%rbx)
	jne	.L1037
.L1035:
	cmpq	$0, 8(%rbx)
	jns	.L1034
	cmpq	%rbx, 216(%rsp)
	ja	.L1034
	cmpq	%rbx, 272(%rsp)
	ja	.L1038
	movq	ec_@GOTPCREL(%rip), %rax
	movq	8(%rax), %rdx
	leaq	-8(%rdx), %rcx
	movq	%rcx, 8(%rax)
	movq	%rbx, -8(%rdx)
	movq	456(%rax), %rdi
	cmpq	%rdi, 8(%rax)
	ja	.L1038
	movq	%rax, %rbp
	movq	216(%rsp), %rax
	movq	%rax, 0(%rbp)
	movq	240(%rsp), %rax
	movq	%rax, 24(%rbp)
	movq	224(%rsp), %rax
	movq	%rax, 16(%rbp)
	movq	%r13, 72(%rbp)
	orl	$1073741824, 64(%rbp)
	call	trail_ov@PLT
	andl	$-1073741825, 64(%rbp)
.L1038:
	movq	264(%rsp), %rax
	movq	%rax, (%rbx)
	movq	%rax, (%rax)
	leaq	16(%rax), %rbp
	movabsq	$-9223372036854775553, %rcx
	movq	%rcx, 8(%rax)
	jmp	.L1039
.L1034:
	movq	ec_@GOTPCREL(%rip), %rax
	cmpq	$0, 200(%rax)
	je	.L1040
	movq	$0, 200(%rax)
	cmpq	$0, 8(%rbx)
	jns	.L2283
	cmpq	%rbx, (%rbx)
	je	.L2284
	movq	%rbx, %rax
.L1042:
	movq	(%rax), %rax
	cmpq	$0, 8(%rax)
	jns	.L1041
	cmpq	%rax, (%rax)
	jne	.L1042
	jmp	.L1041
.L2283:
	movq	%rbx, %rax
	.p2align 4,,5
	jmp	.L1041
.L2284:
	movq	%rbx, %rax
.L1041:
	cmpb	$1, 8(%rax)
	ja	.L1040
	movq	ec_@GOTPCREL(%rip), %rdx
	movq	208(%rdx), %rdx
	testq	%rdx, %rdx
	je	.L1040
	movq	%rax, %rsi
	movq	%rdx, %rdi
	xorl	%eax, %eax
	call	occurs_compound@PLT
	testl	%eax, %eax
	jne	.L1440
.L1040:
	movq	264(%rsp), %rax
	leaq	16(%rax), %rbp
	movq	(%rbx), %rax
	movq	8(%rbx), %rdx
	movq	264(%rsp), %rsi
	movq	%rax, (%rsi)
	movq	%rdx, 8(%rsi)
.L1039:
	movq	ec_@GOTPCREL(%rip), %rax
	movq	$0, 200(%rax)
	cmpq	$0, 8(%r12)
	jns	.L1046
	cmpq	(%r12), %r12
	je	.L1044
.L1045:
	movq	(%r12), %r12
	cmpq	$0, 8(%r12)
	jns	.L1046
	cmpq	%r12, (%r12)
	jne	.L1045
.L1044:
	cmpq	%r12, 216(%rsp)
	ja	.L1046
	cmpq	%r12, 272(%rsp)
	ja	.L1047
	movq	ec_@GOTPCREL(%rip), %rax
	movq	8(%rax), %rdx
	leaq	-8(%rdx), %rcx
	movq	%rcx, 8(%rax)
	movq	%r12, -8(%rdx)
	movq	456(%rax), %rdi
	cmpq	%rdi, 8(%rax)
	ja	.L1047
	movq	%rax, %rbx
	movq	216(%rsp), %rax
	movq	%rax, (%rbx)
	movq	240(%rsp), %rax
	movq	%rax, 24(%rbx)
	movq	224(%rsp), %rax
	movq	%rax, 16(%rbx)
	movq	%r13, 72(%rbx)
	orl	$1073741824, 64(%rbx)
	call	trail_ov@PLT
	andl	$-1073741825, 64(%rbx)
.L1047:
	movq	%rbp, (%r12)
	movq	%rbp, 0(%rbp)
	leaq	16(%rbp), %rax
	movq	%rax, 264(%rsp)
	movabsq	$-9223372036854775553, %rax
	movq	%rax, 8(%rbp)
.L2101:
	movq	ec_@GOTPCREL(%rip), %rax
	movq	$0, 200(%rax)
	movq	%r13, %rax
	leaq	8(%r13), %r13
	movq	(%rax), %rax
	movq	256(%rsp), %rcx
	movq	%rcx, 248(%rsp)
	movq	272(%rsp), %rsi
	movq	%rsi, 280(%rsp)
	movq	240(%rsp), %r14
	movq	224(%rsp), %rdi
	movq	%rdi, 232(%rsp)
	jmp	.L428
.L373:
	movq	%r13, %rax
	movq	240(%rsp), %rbx
	subq	0(%r13), %rbx
	leaq	16(%r13), %r13
	movq	240(%rsp), %r12
	subq	8(%rax), %r12
	jmp	.L1033
.L187:
.L188:
	movq	%r13, %rax
	movq	0(%r13), %rdx
	movq	264(%rsp), %rcx
	movq	%rdx, (%rcx)
	movq	%rcx, %rdx
	addq	$16, 264(%rsp)
	movq	8(%r13), %rcx
	movq	%rcx, 8(%rdx)
	leaq	24(%r13), %r13
	addq	$16, %rax
	movq	(%rax), %rax
	movq	256(%rsp), %rsi
	movq	%rsi, 248(%rsp)
	movq	272(%rsp), %rdi
	movq	%rdi, 280(%rsp)
	movq	240(%rsp), %r14
	movq	224(%rsp), %rcx
	movq	%rcx, 232(%rsp)
	jmp	.L428
.L58:
.L88:
	movq	264(%rsp), %rax
	addq	$16, 264(%rsp)
	movq	$9, 8(%rax)
	movq	%r13, %rax
	leaq	8(%r13), %r13
	movq	(%rax), %rax
	movq	256(%rsp), %rsi
	movq	%rsi, 248(%rsp)
	movq	272(%rsp), %rdi
	movq	%rdi, 280(%rsp)
	movq	240(%rsp), %r14
	movq	224(%rsp), %rcx
	movq	%rcx, 232(%rsp)
	jmp	.L428
.L392:
	movq	%r13, %rax
	leaq	8(%r13), %r13
	movq	(%rax), %rax
	movq	264(%rsp), %rsi
	movq	%rax, (%rsi)
	addq	$16, 264(%rsp)
	movq	$10, 8(%rsi)
	jmp	.L89
.L60:
.L89:
	movq	%r13, %rax
	movq	0(%r13), %rdx
	movq	264(%rsp), %rdi
	movq	%rdx, (%rdi)
	addq	$16, 264(%rsp)
	movq	$10, 8(%rdi)
	leaq	16(%r13), %r13
	addq	$8, %rax
	movq	(%rax), %rax
	movq	256(%rsp), %rcx
	movq	%rcx, 248(%rsp)
	movq	272(%rsp), %rsi
	movq	%rsi, 280(%rsp)
	movq	240(%rsp), %r14
	movq	224(%rsp), %rdi
	movq	%rdi, 232(%rsp)
	jmp	.L428
.L391:
	movq	%r13, %rax
	leaq	8(%r13), %r13
	movq	(%rax), %rax
	movq	264(%rsp), %rcx
	movq	%rax, (%rcx)
	addq	$16, 264(%rsp)
	movq	$11, 8(%rcx)
.L64:
	movq	%r13, %rax
	movq	0(%r13), %rdx
	movq	264(%rsp), %rsi
	movq	%rdx, (%rsi)
	addq	$16, 264(%rsp)
	movq	$11, 8(%rsi)
	leaq	16(%r13), %r13
	addq	$8, %rax
	movq	(%rax), %rax
	movq	256(%rsp), %rdi
	movq	%rdi, 248(%rsp)
	movq	272(%rsp), %rcx
	movq	%rcx, 280(%rsp)
	movq	240(%rsp), %r14
	movq	224(%rsp), %rsi
	movq	%rsi, 232(%rsp)
	jmp	.L428
.L393:
	movq	%r13, %rax
	movq	0(%r13), %rdx
	movq	264(%rsp), %rdi
	movq	%rdx, (%rdi)
	movq	$10, 8(%rdi)
	movq	8(%r13), %rcx
	movq	%rcx, 16(%rdi)
	addq	$32, 264(%rsp)
	movq	$11, 24(%rdi)
	leaq	24(%r13), %r13
	addq	$16, %rax
	movq	(%rax), %rax
	movq	256(%rsp), %rdi
	movq	%rdi, 248(%rsp)
	movq	272(%rsp), %rcx
	movq	%rcx, 280(%rsp)
	movq	240(%rsp), %r14
	movq	224(%rsp), %rsi
	movq	%rsi, 232(%rsp)
	jmp	.L428
.L394:
	movq	%r13, %rax
	movq	0(%r13), %rdx
	movq	264(%rsp), %rdi
	movq	%rdx, (%rdi)
	movq	$11, 8(%rdi)
	movq	8(%r13), %rcx
	movq	%rcx, 16(%rdi)
	addq	$32, 264(%rsp)
	movq	$10, 24(%rdi)
	leaq	24(%r13), %r13
	addq	$16, %rax
	movq	(%rax), %rax
	movq	256(%rsp), %rdi
	movq	%rdi, 248(%rsp)
	movq	272(%rsp), %rcx
	movq	%rcx, 280(%rsp)
	movq	240(%rsp), %r14
	movq	224(%rsp), %rsi
	movq	%rsi, 232(%rsp)
	jmp	.L428
.L66:
.L92:
	movq	%r13, %rax
	movq	0(%r13), %rdx
	movq	264(%rsp), %rdi
	movq	%rdx, (%rdi)
	addq	$16, 264(%rsp)
	movq	$4, 8(%rdi)
	leaq	16(%r13), %r13
	addq	$8, %rax
	movq	(%rax), %rax
	movq	256(%rsp), %rcx
	movq	%rcx, 248(%rsp)
	movq	272(%rsp), %rsi
	movq	%rsi, 280(%rsp)
	movq	240(%rsp), %r14
	movq	224(%rsp), %rdi
	movq	%rdi, 232(%rsp)
	jmp	.L428
.L242:
	movq	264(%rsp), %rax
	movq	224(%rsp), %rcx
	movq	%rcx, 264(%rsp)
	leaq	32(%rcx), %rsi
	movq	%rsi, 232(%rsp)
	movq	%rcx, (%rax)
	movabsq	$-9223372036854775553, %rsi
	movq	%rsi, 8(%rax)
	movq	%rcx, %rax
	movq	%rcx, (%rax)
	movq	%r13, %rax
	movq	0(%r13), %rdx
	movq	%rdx, 8(%rcx)
	leaq	16(%r13), %r13
	addq	$8, %rax
	movq	(%rax), %rax
	movq	256(%rsp), %rcx
	movq	%rcx, 248(%rsp)
	movq	272(%rsp), %rsi
	movq	%rsi, 280(%rsp)
	movq	240(%rsp), %r14
	jmp	.L428
.L382:
	subq	$16, 216(%rsp)
	movq	216(%rsp), %rax
	movq	$1, 8(%rax)
	movq	264(%rsp), %rax
	addq	$16, %rax
	movq	216(%rsp), %rdi
	movq	%rax, (%rdi)
	movq	ec_@GOTPCREL(%rip), %rax
	cmpq	472(%rax), %rdi
	ja	.L68
	movq	%rdi, (%rax)
	movq	240(%rsp), %rdi
	movq	%rdi, 24(%rax)
	movq	224(%rsp), %rcx
	movq	%rcx, 16(%rax)
	movq	%r13, 72(%rax)
	orl	$1073741824, 64(%rax)
	call	local_ov@PLT
	testl	%eax, %eax
	je	.L1048
	movq	256(%rsp), %rax
	movq	%rax, 248(%rsp)
	movq	272(%rsp), %rax
	movq	%rax, 280(%rsp)
	movq	240(%rsp), %r14
	movq	224(%rsp), %rax
	movq	%rax, 232(%rsp)
	jmp	.L411
	.p2align 4,,10
	.p2align 3
.L1048:
	movq	ec_@GOTPCREL(%rip), %rax
	andl	$-1073741825, 64(%rax)
.L68:
	movq	264(%rsp), %rax
	movq	224(%rsp), %rsi
	movq	%rsi, 264(%rsp)
	leaq	32(%rsi), %rdi
	movq	%rdi, 232(%rsp)
	movq	%rsi, (%rax)
	movq	$0, 8(%rax)
	movq	%r13, %rax
	leaq	8(%r13), %r13
	movq	(%rax), %rax
	movq	256(%rsp), %rdi
	movq	%rdi, 248(%rsp)
	movq	272(%rsp), %rcx
	movq	%rcx, 280(%rsp)
	movq	240(%rsp), %r14
	jmp	.L428
.L384:
	movq	%r13, %rax
	movq	0(%r13), %rcx
	movq	264(%rsp), %rsi
	leaq	16(%rsi), %rdx
	movq	216(%rsp), %rdi
	movq	%rdx, (%rdi,%rcx)
	movq	%rsi, %rdx
	movq	224(%rsp), %rcx
	movq	%rcx, 264(%rsp)
	leaq	32(%rcx), %rsi
	movq	%rsi, 232(%rsp)
	movq	%rcx, (%rdx)
	movq	$0, 8(%rdx)
	leaq	16(%r13), %r13
	addq	$8, %rax
	movq	(%rax), %rax
	movq	256(%rsp), %rsi
	movq	%rsi, 248(%rsp)
	movq	272(%rsp), %rdi
	movq	%rdi, 280(%rsp)
	movq	240(%rsp), %r14
	jmp	.L428
.L386:
	movq	%r13, %rax
	leaq	8(%r13), %r13
	movq	216(%rsp), %rdx
	addq	(%rax), %rdx
	cmpq	$0, 8(%rdx)
	jne	.L1049
	movq	8(%rax), %r13
	movq	224(%rsp), %rax
	movq	%rax, 232(%rsp)
	jmp	.L1050
.L1049:
	movq	(%rdx), %rax
	leaq	16(%rax), %rcx
	movq	%rcx, (%rdx)
	addq	$8, %r13
	movq	224(%rsp), %rcx
	movq	%rcx, 264(%rsp)
	leaq	32(%rcx), %rsi
	movq	%rsi, 232(%rsp)
	movq	%rcx, (%rax)
	movq	$0, 8(%rax)
.L1050:
	movq	%r13, %rax
	leaq	8(%r13), %r13
	movq	(%rax), %rax
	movq	256(%rsp), %rsi
	movq	%rsi, 248(%rsp)
	movq	272(%rsp), %rdi
	movq	%rdi, 280(%rsp)
	movq	240(%rsp), %r14
	jmp	.L428
.L93:
	movq	264(%rsp), %rax
	movq	224(%rsp), %rcx
	movq	%rcx, (%rax)
	addq	$16, 264(%rsp)
	movq	$0, 8(%rax)
	movq	%rcx, %rax
	addq	$32, %rax
	movq	%rax, 232(%rsp)
	movq	%r13, %rax
	leaq	8(%r13), %r13
	movq	(%rax), %rax
	movq	256(%rsp), %rsi
	movq	%rsi, 248(%rsp)
	movq	272(%rsp), %rdi
	movq	%rdi, 280(%rsp)
	movq	240(%rsp), %r14
	jmp	.L428
.L381:
	subq	$16, 216(%rsp)
	movq	216(%rsp), %rax
	movq	$1, 8(%rax)
	movq	264(%rsp), %rax
	addq	$16, %rax
	movq	216(%rsp), %rcx
	movq	%rax, (%rcx)
	movq	ec_@GOTPCREL(%rip), %rax
	cmpq	472(%rax), %rcx
	ja	.L69
	movq	%rcx, (%rax)
	movq	240(%rsp), %rcx
	movq	%rcx, 24(%rax)
	movq	224(%rsp), %rsi
	movq	%rsi, 16(%rax)
	movq	%r13, 72(%rax)
	orl	$1073741824, 64(%rax)
	call	local_ov@PLT
	testl	%eax, %eax
	je	.L1051
	movq	256(%rsp), %rax
	movq	%rax, 248(%rsp)
	movq	272(%rsp), %rax
	movq	%rax, 280(%rsp)
	movq	240(%rsp), %r14
	movq	224(%rsp), %rax
	movq	%rax, 232(%rsp)
	jmp	.L411
	.p2align 4,,10
	.p2align 3
.L1051:
	movq	ec_@GOTPCREL(%rip), %rax
	andl	$-1073741825, 64(%rax)
.L69:
	movq	264(%rsp), %rax
	movq	224(%rsp), %rdi
	movq	%rdi, (%rax)
	movq	$1, 8(%rax)
	movq	%r13, %rdx
	movq	0(%r13), %rax
	movq	%rax, 288(%rsp)
	movq	(%rax), %rax
	addq	$1, %rax
	salq	$4, %rax
	addq	%rdi, %rax
	movq	%rax, 232(%rsp)
	movq	%rdi, %rax
	movq	288(%rsp), %rcx
	movq	%rcx, (%rdi)
	addq	$16, %rax
	movq	%rax, 264(%rsp)
	movq	$11, 8(%rdi)
	leaq	16(%r13), %r13
	movq	8(%rdx), %rax
	movq	256(%rsp), %rsi
	movq	%rsi, 248(%rsp)
	movq	272(%rsp), %rdi
	movq	%rdi, 280(%rsp)
	movq	240(%rsp), %r14
	jmp	.L428
.L383:
	movq	%r13, %rax
	movq	0(%r13), %rcx
	movq	%rcx, 288(%rsp)
	movq	8(%r13), %rcx
	movq	264(%rsp), %rsi
	leaq	16(%rsi), %rdx
	movq	216(%rsp), %rdi
	movq	%rdx, (%rdi,%rcx)
	movq	%rsi, %rcx
	movq	224(%rsp), %rsi
	movq	%rsi, (%rcx)
	movq	$1, 8(%rcx)
	movq	288(%rsp), %rcx
	movq	(%rcx), %rsi
	leaq	1(%rsi), %rdx
	salq	$4, %rdx
	addq	224(%rsp), %rdx
	movq	%rdx, 232(%rsp)
	movq	224(%rsp), %rcx
	movq	288(%rsp), %rsi
	movq	%rsi, (%rcx)
	leaq	16(%rcx), %rdi
	movq	%rdi, 264(%rsp)
	movq	$11, 8(%rcx)
	leaq	24(%r13), %r13
	addq	$16, %rax
	movq	(%rax), %rax
	movq	256(%rsp), %rdi
	movq	%rdi, 248(%rsp)
	movq	272(%rsp), %rcx
	movq	%rcx, 280(%rsp)
	movq	240(%rsp), %r14
	jmp	.L428
.L385:
	movq	216(%rsp), %rdx
	addq	8(%r13), %rdx
	cmpq	$0, 8(%rdx)
	jne	.L1052
	movq	16(%r13), %r13
	movq	224(%rsp), %rax
	movq	%rax, 232(%rsp)
	jmp	.L1053
.L1052:
	movq	(%rdx), %rax
	leaq	16(%rax), %rcx
	movq	%rcx, (%rdx)
	movq	224(%rsp), %rsi
	movq	%rsi, (%rax)
	movq	$1, 8(%rax)
	movq	0(%r13), %rax
	movq	%rax, 288(%rsp)
	movq	(%rax), %rax
	addq	$1, %rax
	salq	$4, %rax
	addq	%rsi, %rax
	movq	%rax, 232(%rsp)
	movq	%rsi, %rax
	movq	288(%rsp), %rdi
	movq	%rdi, (%rsi)
	addq	$16, %rax
	movq	%rax, 264(%rsp)
	movq	$11, 8(%rsi)
	addq	$24, %r13
.L1053:
	movq	%r13, %rax
	leaq	8(%r13), %r13
	movq	(%rax), %rax
	movq	256(%rsp), %rcx
	movq	%rcx, 248(%rsp)
	movq	272(%rsp), %rsi
	movq	%rsi, 280(%rsp)
	movq	240(%rsp), %r14
	jmp	.L428
.L94:
	movq	264(%rsp), %rax
	movq	224(%rsp), %rdi
	movq	%rdi, (%rax)
	addq	$16, 264(%rsp)
	movq	$1, 8(%rax)
	movq	%r13, %rax
	addq	0(%r13), %rdi
	movq	%rdi, 232(%rsp)
	leaq	16(%r13), %r13
	movq	8(%rax), %rax
	movq	256(%rsp), %rcx
	movq	%rcx, 248(%rsp)
	movq	272(%rsp), %rsi
	movq	%rsi, 280(%rsp)
	movq	240(%rsp), %r14
	jmp	.L428
.L96:
	subq	$16, 216(%rsp)
	movq	216(%rsp), %rax
	movq	$1, 8(%rax)
	movq	264(%rsp), %rax
	addq	$16, %rax
	movq	216(%rsp), %rdi
	movq	%rax, (%rdi)
	movq	ec_@GOTPCREL(%rip), %rax
	cmpq	472(%rax), %rdi
	ja	.L1054
	movq	%rdi, (%rax)
	movq	240(%rsp), %rdi
	movq	%rdi, 24(%rax)
	movq	224(%rsp), %rcx
	movq	%rcx, 16(%rax)
	movq	%r13, 72(%rax)
	orl	$1073741824, 64(%rax)
	call	local_ov@PLT
	testl	%eax, %eax
	je	.L1055
	movq	256(%rsp), %rax
	movq	%rax, 248(%rsp)
	movq	272(%rsp), %rax
	movq	%rax, 280(%rsp)
	movq	240(%rsp), %r14
	movq	224(%rsp), %rax
	movq	%rax, 232(%rsp)
	jmp	.L411
	.p2align 4,,10
	.p2align 3
.L1055:
	movq	ec_@GOTPCREL(%rip), %rax
	andl	$-1073741825, 64(%rax)
.L1054:
	movq	%r13, %rax
	leaq	8(%r13), %r13
	movq	(%rax), %rax
	movq	256(%rsp), %rsi
	movq	%rsi, 248(%rsp)
	movq	272(%rsp), %rdi
	movq	%rdi, 280(%rsp)
	movq	240(%rsp), %r14
	movq	224(%rsp), %rcx
	movq	%rcx, 232(%rsp)
	jmp	.L428
.L97:
	movq	%r13, %rax
	movq	0(%r13), %rcx
	movq	264(%rsp), %rsi
	leaq	16(%rsi), %rdx
	movq	216(%rsp), %rdi
	movq	%rdx, (%rdi,%rcx)
	leaq	16(%r13), %r13
	addq	$8, %rax
	movq	(%rax), %rax
	movq	256(%rsp), %rcx
	movq	%rcx, 248(%rsp)
	movq	272(%rsp), %rsi
	movq	%rsi, 280(%rsp)
	movq	240(%rsp), %r14
	movq	224(%rsp), %rdi
	movq	%rdi, 232(%rsp)
	jmp	.L428
.L98:
	movq	%r13, %rax
	movq	0(%r13), %rdx
	movq	216(%rsp), %rcx
	movq	(%rcx,%rdx), %rsi
	movq	%rsi, 264(%rsp)
	leaq	16(%r13), %r13
	movq	8(%rax), %rax
	movq	256(%rsp), %rdi
	movq	%rdi, 248(%rsp)
	movq	272(%rsp), %rcx
	movq	%rcx, 280(%rsp)
	movq	240(%rsp), %r14
	movq	224(%rsp), %rsi
	movq	%rsi, 232(%rsp)
	jmp	.L428
.L99:
	movq	%r13, %rax
	leaq	8(%r13), %r13
	movq	216(%rsp), %rdx
	addq	(%rax), %rdx
	cmpq	$0, 8(%rdx)
	jne	.L1056
	movq	8(%rax), %r13
	jmp	.L1057
.L1056:
	movq	(%rdx), %rax
	movq	%rax, 264(%rsp)
	addq	$16, %rax
	movq	%rax, (%rdx)
	addq	$8, %r13
.L1057:
	movq	%r13, %rax
	leaq	8(%r13), %r13
	movq	(%rax), %rax
	movq	256(%rsp), %rdi
	movq	%rdi, 248(%rsp)
	movq	272(%rsp), %rcx
	movq	%rcx, 280(%rsp)
	movq	240(%rsp), %r14
	movq	224(%rsp), %rsi
	movq	%rsi, 232(%rsp)
	jmp	.L428
.L100:
	movq	%r13, %rax
	movq	216(%rsp), %rdx
	addq	0(%r13), %rdx
	movq	(%rdx), %rdi
	movq	%rdi, 264(%rsp)
	leaq	16(%r13), %r13
	cmpq	$0, 8(%rdx)
	jne	.L1059
	movq	8(%rax), %r13
.L1059:
	movq	%r13, %rax
	leaq	8(%r13), %r13
	movq	(%rax), %rax
	movq	256(%rsp), %rcx
	movq	%rcx, 248(%rsp)
	movq	272(%rsp), %rsi
	movq	%rsi, 280(%rsp)
	movq	240(%rsp), %r14
	movq	224(%rsp), %rdi
	movq	%rdi, 232(%rsp)
	jmp	.L428
.L101:
	movq	%r13, %rdx
	movq	0(%r13), %r12
	movq	240(%rsp), %rax
	subq	8(%r13), %rax
	movq	%rax, (%rax)
	movabsq	$-9223372036854775553, %rcx
	movq	%rcx, 8(%rax)
	movq	%rax, (%r12)
	movq	%rcx, 8(%r12)
	leaq	24(%r13), %r13
	movq	16(%rdx), %rax
	movq	256(%rsp), %rcx
	movq	%rcx, 248(%rsp)
	movq	272(%rsp), %rsi
	movq	%rsi, 280(%rsp)
	movq	240(%rsp), %r14
	movq	224(%rsp), %rdi
	movq	%rdi, 232(%rsp)
	jmp	.L428
.L377:
	movq	%r13, %rax
	leaq	8(%r13), %r13
	movq	(%rax), %rax
	movq	224(%rsp), %rcx
	movq	%rcx, (%rax)
	movabsq	$-9223372036854775553, %rdx
	movq	%rdx, 8(%rax)
	movq	%rcx, %rax
	addq	$16, 224(%rsp)
	movq	%rcx, (%rax)
	movq	%rdx, 8(%rcx)
	jmp	.L102
.L288:
.L102:
	movq	%r13, %rax
	movq	0(%r13), %rcx
	movq	224(%rsp), %rsi
	movq	%rsi, (%rcx)
	movabsq	$-9223372036854775553, %rdx
	movq	%rdx, 8(%rcx)
	leaq	16(%rsi), %rdi
	movq	%rdi, 232(%rsp)
	movq	%rsi, (%rsi)
	movq	%rdx, 8(%rsi)
	leaq	16(%r13), %r13
	addq	$8, %rax
	movq	(%rax), %rax
	movq	256(%rsp), %rcx
	movq	%rcx, 248(%rsp)
	movq	272(%rsp), %rsi
	movq	%rsi, 280(%rsp)
	movq	240(%rsp), %r14
	jmp	.L428
.L376:
	movq	%r13, %rax
	movq	0(%r13), %rcx
	leaq	16(%r13), %r13
	movq	240(%rsp), %rsi
	subq	8(%rax), %rsi
	movq	224(%rsp), %rax
	movq	%rax, (%rsi)
	movq	%rax, (%rcx)
	movabsq	$-9223372036854775553, %rdx
	movq	%rdx, 8(%rsi)
	movq	%rdx, 8(%rcx)
	addq	$16, 224(%rsp)
	movq	%rax, (%rax)
	movq	%rdx, 8(%rax)
.L286:
	movq	%r13, %rax
	movq	0(%r13), %rcx
	movq	240(%rsp), %r12
	subq	8(%r13), %r12
	movq	224(%rsp), %rsi
	movq	%rsi, (%r12)
	movq	%rsi, (%rcx)
	movabsq	$-9223372036854775553, %rdx
	movq	%rdx, 8(%r12)
	movq	%rdx, 8(%rcx)
	movq	%rsi, %rcx
	addq	$16, %rcx
	movq	%rcx, 232(%rsp)
	movq	%rsi, (%rsi)
	movq	%rdx, 8(%rsi)
	leaq	24(%r13), %r13
	addq	$16, %rax
	movq	(%rax), %rax
	movq	256(%rsp), %rcx
	movq	%rcx, 248(%rsp)
	movq	272(%rsp), %rsi
	movq	%rsi, 280(%rsp)
	movq	240(%rsp), %r14
	jmp	.L428
.L287:
	movq	%r13, %rax
	movq	240(%rsp), %rcx
	subq	0(%r13), %rcx
	movq	224(%rsp), %rdi
	movq	%rdi, (%rcx)
	movabsq	$-9223372036854775553, %rdx
	movq	%rdx, 8(%rcx)
	leaq	16(%rdi), %rcx
	movq	%rcx, 232(%rsp)
	movq	%rdi, (%rdi)
	movq	%rdx, 8(%rdi)
	leaq	16(%r13), %r13
	addq	$8, %rax
	movq	(%rax), %rax
	movq	256(%rsp), %rsi
	movq	%rsi, 248(%rsp)
	movq	272(%rsp), %rdi
	movq	%rdi, 280(%rsp)
	movq	240(%rsp), %r14
	jmp	.L428
.L346:
	movq	%r13, %rax
	movq	0(%r13), %rdx
	movq	224(%rsp), %rcx
	movq	%rcx, (%rdx)
	movabsq	$-9223372036854775553, %rsi
	movq	%rsi, 8(%rdx)
	leaq	16(%rcx), %rdi
	movq	%rdi, 232(%rsp)
	movq	%rcx, %rsi
	movq	%rcx, (%rsi)
	movq	8(%r13), %rdx
	movq	%rdx, 8(%rcx)
	leaq	24(%r13), %r13
	addq	$16, %rax
	movq	(%rax), %rax
	movq	256(%rsp), %rcx
	movq	%rcx, 248(%rsp)
	movq	272(%rsp), %rsi
	movq	%rsi, 280(%rsp)
	movq	240(%rsp), %r14
	jmp	.L428
.L348:
	movq	%r13, %rax
	movq	0(%r13), %rdx
	movq	240(%rsp), %r12
	subq	8(%r13), %r12
	movq	224(%rsp), %rdi
	movq	%rdi, (%r12)
	movq	%rdi, (%rdx)
	movabsq	$-9223372036854775553, %rcx
	movq	%rcx, 8(%r12)
	movq	%rcx, 8(%rdx)
	leaq	16(%rdi), %rsi
	movq	%rsi, 232(%rsp)
	movq	%rdi, %rcx
	movq	%rdi, (%rcx)
	movq	16(%r13), %rdx
	movq	%rdx, 8(%rdi)
	leaq	32(%r13), %r13
	addq	$24, %rax
	movq	(%rax), %rax
	movq	256(%rsp), %rdi
	movq	%rdi, 248(%rsp)
	movq	272(%rsp), %rcx
	movq	%rcx, 280(%rsp)
	movq	240(%rsp), %r14
	jmp	.L428
.L347:
	movq	%r13, %rax
	movq	240(%rsp), %rdx
	subq	0(%r13), %rdx
	movq	224(%rsp), %rsi
	movq	%rsi, (%rdx)
	movabsq	$-9223372036854775553, %rdi
	movq	%rdi, 8(%rdx)
	leaq	16(%rsi), %rcx
	movq	%rcx, 232(%rsp)
	movq	%rsi, %rdi
	movq	%rsi, (%rdi)
	movq	8(%r13), %rdx
	movq	%rdx, 8(%rsi)
	leaq	24(%r13), %r13
	addq	$16, %rax
	movq	(%rax), %rax
	movq	256(%rsp), %rsi
	movq	%rsi, 248(%rsp)
	movq	272(%rsp), %rdi
	movq	%rdi, 280(%rsp)
	movq	240(%rsp), %r14
	jmp	.L428
.L223:
	movq	%r13, %rax
	movq	0(%r13), %rdx
	movq	224(%rsp), %rcx
	movq	%rcx, 264(%rsp)
	movq	%rcx, %rdi
	addq	8(%r13), %rdi
	movq	%rdi, 232(%rsp)
	movq	%rcx, (%rdx)
	movabsq	$-9223372036854775553, %rdi
	movq	%rdi, 8(%rdx)
	movq	%rcx, (%rcx)
	movq	16(%r13), %rdx
	movq	%rdx, 8(%rcx)
	leaq	32(%r13), %r13
	addq	$24, %rax
	movq	(%rax), %rax
	movq	256(%rsp), %rdi
	movq	%rdi, 248(%rsp)
	movq	272(%rsp), %rcx
	movq	%rcx, 280(%rsp)
	movq	240(%rsp), %r14
	jmp	.L428
.L224:
	movq	%r13, %rax
	movq	0(%r13), %r12
	movq	240(%rsp), %rcx
	subq	8(%r13), %rcx
	movq	224(%rsp), %rsi
	addq	16(%r13), %rsi
	movq	%rsi, 232(%rsp)
	movq	224(%rsp), %rsi
	movq	%rsi, (%rcx)
	movabsq	$-9223372036854775553, %rdx
	movq	%rdx, 8(%rcx)
	movq	%rsi, %rdi
	movq	%rsi, (%r12)
	movq	%rdx, 8(%r12)
	movq	%rsi, %rcx
	movq	%rsi, (%rcx)
	leaq	16(%rsi), %rsi
	movq	%rsi, 264(%rsp)
	movq	24(%r13), %rdx
	movq	%rdx, 8(%rdi)
	leaq	40(%r13), %r13
	addq	$32, %rax
	movq	(%rax), %rax
	movq	256(%rsp), %rsi
	movq	%rsi, 248(%rsp)
	movq	272(%rsp), %rdi
	movq	%rdi, 280(%rsp)
	movq	240(%rsp), %r14
	jmp	.L428
.L194:
	movq	%r13, %rax
	movq	0(%r13), %r12
	leaq	16(%r13), %r13
	movq	216(%rsp), %rdi
	addq	8(%rax), %rdi
	movq	%rdi, %rax
.L1060:
	movq	8(%rax), %rdx
	testq	%rdx, %rdx
	jns	.L1061
	cmpq	(%rax), %rax
	jne	.L2602
	jmp	.L1061
	.p2align 4,,10
	.p2align 3
.L103:
	movq	%r13, %rax
	movq	0(%r13), %r12
	leaq	16(%r13), %r13
	movq	240(%rsp), %rsi
	subq	8(%rax), %rsi
	movq	%rsi, %rax
	movq	272(%rsp), %rcx
	cmpq	%rcx, 240(%rsp)
	jb	.L1060
	jmp	.L2645
.L2602:
	movq	(%rax), %rax
	movq	8(%rax), %rdx
	testq	%rdx, %rdx
	jns	.L1061
	cmpq	%rax, (%rax)
	jne	.L2602
.L1061:
	cmpb	$-1, %dl
	jne	.L1065
	cmpq	240(%rsp), %rax
	jae	.L1066
	cmpq	216(%rsp), %rax
	jb	.L1066
	cmpq	%rax, 272(%rsp)
	jbe	.L1066
	movq	224(%rsp), %rsi
	movq	%rsi, (%r12)
	movq	%rsi, %rdi
	movq	%rsi, (%rax)
	movabsq	$-9223372036854775553, %rax
	movq	%rax, 8(%r12)
	leaq	16(%rsi), %rcx
	movq	%rcx, 232(%rsp)
	movq	%rsi, (%rdi)
	movq	%rax, 8(%rsi)
	jmp	.L1067
	.p2align 4,,10
	.p2align 3
.L1066:
	movq	%rax, (%r12)
	movabsq	$-9223372036854775553, %rax
	movq	%rax, 8(%r12)
	movq	224(%rsp), %rax
	movq	%rax, 232(%rsp)
	jmp	.L1067
.L1065:
	movq	(%rax), %rax
	movq	%rax, (%r12)
	movq	%rdx, 8(%r12)
	movq	224(%rsp), %rax
	movq	%rax, 232(%rsp)
	jmp	.L1067
.L2645:
	movq	8(%rsi), %rdx
	movq	(%rsi), %rax
	movq	%rax, (%r12)
	movq	%rdx, 8(%r12)
	movq	224(%rsp), %rax
	movq	%rax, 232(%rsp)
.L1067:
	movq	%r13, %rax
	leaq	8(%r13), %r13
	movq	(%rax), %rax
	movq	256(%rsp), %rsi
	movq	%rsi, 248(%rsp)
	movq	272(%rsp), %rdi
	movq	%rdi, 280(%rsp)
	movq	240(%rsp), %r14
	jmp	.L428
.L189:
	movq	%r13, %rax
	movq	0(%r13), %rdx
	movq	8(%r13), %rcx
	movq	%rcx, 8(%rdx)
	movq	16(%r13), %rcx
	movq	%rcx, (%rdx)
	leaq	32(%r13), %r13
	addq	$24, %rax
	movq	(%rax), %rax
	movq	256(%rsp), %rcx
	movq	%rcx, 248(%rsp)
	movq	272(%rsp), %rsi
	movq	%rsi, 280(%rsp)
	movq	240(%rsp), %r14
	movq	224(%rsp), %rdi
	movq	%rdi, 232(%rsp)
	jmp	.L428
.L104:
	movq	%r13, %rax
	movq	0(%r13), %rdx
	movq	$9, 8(%rdx)
	leaq	16(%r13), %r13
	addq	$8, %rax
	movq	(%rax), %rax
	movq	256(%rsp), %rcx
	movq	%rcx, 248(%rsp)
	movq	272(%rsp), %rsi
	movq	%rsi, 280(%rsp)
	movq	240(%rsp), %r14
	movq	224(%rsp), %rdi
	movq	%rdi, 232(%rsp)
	jmp	.L428
.L105:
	movq	%r13, %rax
	movq	0(%r13), %rdx
	movq	8(%r13), %rcx
	movq	%rcx, (%rdx)
	movq	$10, 8(%rdx)
	leaq	24(%r13), %r13
	addq	$16, %rax
	movq	(%rax), %rax
	movq	256(%rsp), %rcx
	movq	%rcx, 248(%rsp)
	movq	272(%rsp), %rsi
	movq	%rsi, 280(%rsp)
	movq	240(%rsp), %r14
	movq	224(%rsp), %rdi
	movq	%rdi, 232(%rsp)
	jmp	.L428
.L107:
	movq	%r13, %rax
	movq	0(%r13), %rdx
	movq	8(%r13), %rcx
	movq	%rcx, (%rdx)
	movq	$11, 8(%rdx)
	leaq	24(%r13), %r13
	addq	$16, %rax
	movq	(%rax), %rax
	movq	256(%rsp), %rcx
	movq	%rcx, 248(%rsp)
	movq	272(%rsp), %rsi
	movq	%rsi, 280(%rsp)
	movq	240(%rsp), %r14
	movq	224(%rsp), %rdi
	movq	%rdi, 232(%rsp)
	jmp	.L428
.L405:
	movq	%r13, %rax
	movq	0(%r13), %rdx
	movq	8(%r13), %rcx
	movq	%rcx, (%rdx)
	movq	$267, 8(%rdx)
	leaq	24(%r13), %r13
	addq	$8, %rax
	movq	8(%rax), %rax
	movq	256(%rsp), %rcx
	movq	%rcx, 248(%rsp)
	movq	272(%rsp), %rsi
	movq	%rsi, 280(%rsp)
	movq	240(%rsp), %r14
	movq	224(%rsp), %rdi
	movq	%rdi, 232(%rsp)
	jmp	.L428
.L108:
	movq	%r13, %rax
	movq	0(%r13), %rdx
	movq	8(%r13), %rcx
	movq	%rcx, (%rdx)
	movq	$4, 8(%rdx)
	leaq	24(%r13), %r13
	addq	$16, %rax
	movq	(%rax), %rax
	movq	256(%rsp), %rcx
	movq	%rcx, 248(%rsp)
	movq	272(%rsp), %rsi
	movq	%rsi, 280(%rsp)
	movq	240(%rsp), %r14
	movq	224(%rsp), %rdi
	movq	%rdi, 232(%rsp)
	jmp	.L428
.L109:
	movq	%r13, %rax
	movq	0(%r13), %rdx
	movq	224(%rsp), %rcx
	movq	%rcx, 264(%rsp)
	leaq	32(%rcx), %rsi
	movq	%rsi, 232(%rsp)
	movq	%rcx, (%rdx)
	movq	$0, 8(%rdx)
	leaq	16(%r13), %r13
	addq	$8, %rax
	movq	(%rax), %rax
	movq	256(%rsp), %rsi
	movq	%rsi, 248(%rsp)
	movq	272(%rsp), %rdi
	movq	%rdi, 280(%rsp)
	movq	240(%rsp), %r14
	jmp	.L428
.L110:
	movq	0(%r13), %rdx
	movq	224(%rsp), %rcx
	movq	%rcx, (%rdx)
	movq	$1, 8(%rdx)
	leaq	8(%r13), %rdx
	movq	8(%r13), %rax
	movq	%rax, 288(%rsp)
	movq	(%rax), %rax
	addq	$1, %rax
	salq	$4, %rax
	addq	%rcx, %rax
	movq	%rax, 232(%rsp)
	movq	%rcx, %rax
	movq	288(%rsp), %rsi
	movq	%rsi, (%rcx)
	addq	$16, %rax
	movq	%rax, 264(%rsp)
	movq	$11, 8(%rcx)
	leaq	16(%rdx), %r13
	movq	8(%rdx), %rax
	movq	256(%rsp), %rdi
	movq	%rdi, 248(%rsp)
	movq	272(%rsp), %rcx
	movq	%rcx, 280(%rsp)
	movq	240(%rsp), %r14
	jmp	.L428
.L111:
	subq	$16, 216(%rsp)
	movq	216(%rsp), %rax
	movabsq	$-9223372036854775553, %rsi
	movq	%rsi, 8(%rax)
	movq	%rax, (%rax)
	movq	ec_@GOTPCREL(%rip), %rax
	movq	216(%rsp), %rdi
	cmpq	472(%rax), %rdi
	ja	.L1068
	movq	%rdi, (%rax)
	movq	240(%rsp), %rsi
	movq	%rsi, 24(%rax)
	movq	224(%rsp), %rdi
	movq	%rdi, 16(%rax)
	movq	%r13, 72(%rax)
	orl	$1073741824, 64(%rax)
	call	local_ov@PLT
	testl	%eax, %eax
	je	.L1069
	movq	256(%rsp), %rax
	movq	%rax, 248(%rsp)
	movq	272(%rsp), %rax
	movq	%rax, 280(%rsp)
	movq	240(%rsp), %r14
	movq	224(%rsp), %rax
	movq	%rax, 232(%rsp)
	jmp	.L411
	.p2align 4,,10
	.p2align 3
.L1069:
	movq	ec_@GOTPCREL(%rip), %rax
	andl	$-1073741825, 64(%rax)
.L1068:
	movq	%r13, %rax
	leaq	8(%r13), %r13
	movq	(%rax), %rax
	movq	256(%rsp), %rcx
	movq	%rcx, 248(%rsp)
	movq	272(%rsp), %rsi
	movq	%rsi, 280(%rsp)
	movq	240(%rsp), %r14
	movq	224(%rsp), %rdi
	movq	%rdi, 232(%rsp)
	jmp	.L428
.L112:
	movq	%r13, %rax
	leaq	8(%r13), %r13
	movq	240(%rsp), %rbx
	subq	(%rax), %rbx
	subq	$16, 216(%rsp)
	movq	216(%rsp), %rax
	movabsq	$-9223372036854775553, %rcx
	movq	%rcx, 8(%rax)
	movq	%rbx, (%rax)
	movq	ec_@GOTPCREL(%rip), %rax
	movq	216(%rsp), %rsi
	cmpq	472(%rax), %rsi
	ja	.L1070
	movq	%rsi, (%rax)
	movq	240(%rsp), %rcx
	movq	%rcx, 24(%rax)
	movq	224(%rsp), %rsi
	movq	%rsi, 16(%rax)
	movq	%r13, 72(%rax)
	orl	$1073741824, 64(%rax)
	call	local_ov@PLT
	testl	%eax, %eax
	je	.L1071
	movq	256(%rsp), %rax
	movq	%rax, 248(%rsp)
	movq	272(%rsp), %rax
	movq	%rax, 280(%rsp)
	movq	240(%rsp), %r14
	movq	224(%rsp), %rax
	movq	%rax, 232(%rsp)
	jmp	.L411
	.p2align 4,,10
	.p2align 3
.L1071:
	movq	ec_@GOTPCREL(%rip), %rax
	andl	$-1073741825, 64(%rax)
.L1070:
	movq	%rbx, (%rbx)
	movabsq	$-9223372036854775553, %rax
	movq	%rax, 8(%rbx)
	movq	%r13, %rax
	leaq	8(%r13), %r13
	movq	(%rax), %rax
	movq	256(%rsp), %rdi
	movq	%rdi, 248(%rsp)
	movq	272(%rsp), %rcx
	movq	%rcx, 280(%rsp)
	movq	240(%rsp), %r14
	movq	224(%rsp), %rsi
	movq	%rsi, 232(%rsp)
	jmp	.L428
.L230:
	movq	224(%rsp), %rax
	movq	%rax, 264(%rsp)
	movq	%r13, %rax
	leaq	8(%r13), %r13
	movq	264(%rsp), %rdi
	addq	(%rax), %rdi
	movq	%rdi, 232(%rsp)
	subq	$16, 216(%rsp)
	movq	216(%rsp), %rax
	movq	264(%rsp), %rdi
	movq	%rdi, (%rax)
	movabsq	$-9223372036854775553, %rcx
	movq	%rcx, 8(%rax)
	movq	ec_@GOTPCREL(%rip), %rax
	movq	216(%rsp), %rsi
	cmpq	472(%rax), %rsi
	ja	.L1072
	movq	%rsi, (%rax)
	movq	240(%rsp), %rcx
	movq	%rcx, 24(%rax)
	movq	232(%rsp), %rsi
	movq	%rsi, 16(%rax)
	movq	%r13, 72(%rax)
	orl	$1073741824, 64(%rax)
	call	local_ov@PLT
	testl	%eax, %eax
	je	.L1073
	movq	256(%rsp), %rax
	movq	%rax, 248(%rsp)
	movq	272(%rsp), %rax
	movq	%rax, 280(%rsp)
	movq	240(%rsp), %r14
	jmp	.L411
	.p2align 4,,10
	.p2align 3
.L1073:
	movq	ec_@GOTPCREL(%rip), %rax
	andl	$-1073741825, 64(%rax)
.L1072:
	movq	264(%rsp), %rax
	movq	%rax, (%rax)
	movq	%r13, %rax
	movq	0(%r13), %rdx
	movq	264(%rsp), %rdi
	movq	%rdx, 8(%rdi)
	leaq	16(%r13), %r13
	addq	$8, %rax
	movq	(%rax), %rax
	movq	256(%rsp), %rcx
	movq	%rcx, 248(%rsp)
	movq	272(%rsp), %rsi
	movq	%rsi, 280(%rsp)
	movq	240(%rsp), %r14
	jmp	.L428
.L231:
	movq	%r13, %rax
	movq	240(%rsp), %rbp
	subq	0(%r13), %rbp
	movq	224(%rsp), %rbx
	leaq	16(%r13), %r13
	movq	%rbx, %rsi
	addq	8(%rax), %rsi
	movq	%rsi, 232(%rsp)
	subq	$16, 216(%rsp)
	movq	216(%rsp), %rax
	movq	%rbx, (%rax)
	movabsq	$-9223372036854775553, %rdi
	movq	%rdi, 8(%rax)
	movq	ec_@GOTPCREL(%rip), %rax
	movq	216(%rsp), %rcx
	cmpq	472(%rax), %rcx
	ja	.L1074
	movq	%rcx, (%rax)
	movq	240(%rsp), %rdi
	movq	%rdi, 24(%rax)
	movq	232(%rsp), %rcx
	movq	%rcx, 16(%rax)
	movq	%r13, 72(%rax)
	orl	$1073741824, 64(%rax)
	call	local_ov@PLT
	testl	%eax, %eax
	je	.L1075
	movq	256(%rsp), %rax
	movq	%rax, 248(%rsp)
	movq	272(%rsp), %rax
	movq	%rax, 280(%rsp)
	movq	240(%rsp), %r14
	movq	%rbx, 264(%rsp)
	jmp	.L411
	.p2align 4,,10
	.p2align 3
.L1075:
	movq	ec_@GOTPCREL(%rip), %rax
	andl	$-1073741825, 64(%rax)
.L1074:
	movq	%rbx, 0(%rbp)
	movabsq	$-9223372036854775553, %rax
	movq	%rax, 8(%rbp)
	movq	%rbx, (%rbx)
	leaq	16(%rbx), %rax
	movq	%rax, 264(%rsp)
	movq	%r13, %rax
	movq	0(%r13), %rdx
	movq	%rdx, 8(%rbx)
	leaq	16(%r13), %r13
	addq	$8, %rax
	movq	(%rax), %rax
	movq	256(%rsp), %rsi
	movq	%rsi, 248(%rsp)
	movq	272(%rsp), %rdi
	movq	%rdi, 280(%rsp)
	movq	240(%rsp), %r14
	jmp	.L428
.L113:
	movq	%r13, %rax
	leaq	8(%r13), %r13
	movq	(%rax), %rax
	cmpq	$0, 8(%rax)
	jns	.L1076
	cmpq	(%rax), %rax
	je	.L1076
.L1077:
	movq	(%rax), %rax
	cmpq	$0, 8(%rax)
	jns	.L1076
	cmpq	%rax, (%rax)
	jne	.L1077
.L1076:
	subq	$16, 216(%rsp)
	movq	8(%rax), %rdx
	movq	(%rax), %rax
	movq	216(%rsp), %rcx
	movq	%rax, (%rcx)
	movq	%rdx, 8(%rcx)
	movq	ec_@GOTPCREL(%rip), %rax
	cmpq	472(%rax), %rcx
	ja	.L1078
	movq	%rcx, (%rax)
	movq	240(%rsp), %rcx
	movq	%rcx, 24(%rax)
	movq	224(%rsp), %rsi
	movq	%rsi, 16(%rax)
	movq	%r13, 72(%rax)
	orl	$1073741824, 64(%rax)
	call	local_ov@PLT
	testl	%eax, %eax
	je	.L1079
	movq	256(%rsp), %rax
	movq	%rax, 248(%rsp)
	movq	272(%rsp), %rax
	movq	%rax, 280(%rsp)
	movq	240(%rsp), %r14
	movq	224(%rsp), %rax
	movq	%rax, 232(%rsp)
	jmp	.L411
	.p2align 4,,10
	.p2align 3
.L1079:
	movq	ec_@GOTPCREL(%rip), %rax
	andl	$-1073741825, 64(%rax)
.L1078:
	movq	%r13, %rax
	leaq	8(%r13), %r13
	movq	(%rax), %rax
	movq	256(%rsp), %rdi
	movq	%rdi, 248(%rsp)
	movq	272(%rsp), %rcx
	movq	%rcx, 280(%rsp)
	movq	240(%rsp), %r14
	movq	224(%rsp), %rsi
	movq	%rsi, 232(%rsp)
	jmp	.L428
.L114:
	movq	%r13, %rax
	leaq	8(%r13), %r13
	movq	240(%rsp), %rdi
	subq	(%rax), %rdi
	movq	%rdi, %rax
	cmpq	$0, 8(%rdi)
	jns	.L1080
	cmpq	(%rdi), %rdi
	je	.L1080
.L1081:
	movq	(%rax), %rax
	cmpq	$0, 8(%rax)
	jns	.L1080
	cmpq	%rax, (%rax)
	jne	.L1081
.L1080:
	subq	$16, 216(%rsp)
	movq	8(%rax), %rdx
	movq	(%rax), %rax
	movq	216(%rsp), %rdi
	movq	%rax, (%rdi)
	movq	%rdx, 8(%rdi)
	movq	ec_@GOTPCREL(%rip), %rax
	cmpq	472(%rax), %rdi
	ja	.L1082
	movq	%rdi, (%rax)
	movq	240(%rsp), %rdi
	movq	%rdi, 24(%rax)
	movq	224(%rsp), %rcx
	movq	%rcx, 16(%rax)
	movq	%r13, 72(%rax)
	orl	$1073741824, 64(%rax)
	call	local_ov@PLT
	testl	%eax, %eax
	je	.L1083
	movq	256(%rsp), %rax
	movq	%rax, 248(%rsp)
	movq	272(%rsp), %rax
	movq	%rax, 280(%rsp)
	movq	240(%rsp), %r14
	movq	224(%rsp), %rax
	movq	%rax, 232(%rsp)
	jmp	.L411
	.p2align 4,,10
	.p2align 3
.L1083:
	movq	ec_@GOTPCREL(%rip), %rax
	andl	$-1073741825, 64(%rax)
.L1082:
	movq	%r13, %rax
	leaq	8(%r13), %r13
	movq	(%rax), %rax
	movq	256(%rsp), %rsi
	movq	%rsi, 248(%rsp)
	movq	272(%rsp), %rdi
	movq	%rdi, 280(%rsp)
	movq	240(%rsp), %r14
	movq	224(%rsp), %rcx
	movq	%rcx, 232(%rsp)
	jmp	.L428
.L115:
	movq	%r13, %rax
	leaq	8(%r13), %r13
	movq	216(%rsp), %rsi
	addq	(%rax), %rsi
	movq	%rsi, %rax
	cmpq	$0, 8(%rsi)
	jns	.L1084
	cmpq	(%rsi), %rsi
	je	.L1084
.L1085:
	movq	(%rax), %rax
	cmpq	$0, 8(%rax)
	jns	.L1084
	cmpq	%rax, (%rax)
	jne	.L1085
.L1084:
	subq	$16, 216(%rsp)
	movq	8(%rax), %rdx
	movq	(%rax), %rax
	movq	216(%rsp), %rsi
	movq	%rax, (%rsi)
	movq	%rdx, 8(%rsi)
	movq	ec_@GOTPCREL(%rip), %rax
	cmpq	472(%rax), %rsi
	ja	.L1086
	movq	%rsi, (%rax)
	movq	240(%rsp), %rsi
	movq	%rsi, 24(%rax)
	movq	224(%rsp), %rdi
	movq	%rdi, 16(%rax)
	movq	%r13, 72(%rax)
	orl	$1073741824, 64(%rax)
	call	local_ov@PLT
	testl	%eax, %eax
	je	.L1087
	movq	256(%rsp), %rax
	movq	%rax, 248(%rsp)
	movq	272(%rsp), %rax
	movq	%rax, 280(%rsp)
	movq	240(%rsp), %r14
	movq	224(%rsp), %rax
	movq	%rax, 232(%rsp)
	jmp	.L411
	.p2align 4,,10
	.p2align 3
.L1087:
	movq	ec_@GOTPCREL(%rip), %rax
	andl	$-1073741825, 64(%rax)
.L1086:
	movq	%r13, %rax
	leaq	8(%r13), %r13
	movq	(%rax), %rax
	movq	256(%rsp), %rcx
	movq	%rcx, 248(%rsp)
	movq	272(%rsp), %rsi
	movq	%rsi, 280(%rsp)
	movq	240(%rsp), %r14
	movq	224(%rsp), %rdi
	movq	%rdi, 232(%rsp)
	jmp	.L428
.L268:
	subq	$16, 216(%rsp)
	movq	216(%rsp), %rax
	movabsq	$-9223372036854775553, %rcx
	movq	%rcx, 8(%rax)
	movq	%r13, %rax
	leaq	8(%r13), %r13
	movq	264(%rsp), %rdi
	addq	(%rax), %rdi
	movq	216(%rsp), %rsi
	movq	%rdi, (%rsi)
	movq	ec_@GOTPCREL(%rip), %rax
	cmpq	472(%rax), %rsi
	ja	.L1088
	movq	%rsi, (%rax)
	movq	240(%rsp), %rsi
	movq	%rsi, 24(%rax)
	movq	224(%rsp), %rdi
	movq	%rdi, 16(%rax)
	movq	%r13, 72(%rax)
	orl	$1073741824, 64(%rax)
	call	local_ov@PLT
	testl	%eax, %eax
	je	.L1089
	movq	256(%rsp), %rax
	movq	%rax, 248(%rsp)
	movq	272(%rsp), %rax
	movq	%rax, 280(%rsp)
	movq	240(%rsp), %r14
	movq	224(%rsp), %rax
	movq	%rax, 232(%rsp)
	jmp	.L411
	.p2align 4,,10
	.p2align 3
.L1089:
	movq	ec_@GOTPCREL(%rip), %rax
	andl	$-1073741825, 64(%rax)
.L1088:
	movq	%r13, %rax
	leaq	8(%r13), %r13
	movq	(%rax), %rax
	movq	256(%rsp), %rcx
	movq	%rcx, 248(%rsp)
	movq	272(%rsp), %rsi
	movq	%rsi, 280(%rsp)
	movq	240(%rsp), %r14
	movq	224(%rsp), %rdi
	movq	%rdi, 232(%rsp)
	jmp	.L428
.L190:
	subq	$16, 216(%rsp)
	movq	%r13, %rax
	movq	0(%r13), %rdx
	movq	216(%rsp), %rcx
	movq	%rdx, 8(%rcx)
	movq	8(%r13), %rdx
	movq	%rdx, (%rcx)
	leaq	24(%r13), %r13
	addq	$16, %rax
	movq	(%rax), %rax
	movq	256(%rsp), %rdi
	movq	%rdi, 248(%rsp)
	movq	272(%rsp), %rcx
	movq	%rcx, 280(%rsp)
	movq	240(%rsp), %r14
	movq	224(%rsp), %rsi
	movq	%rsi, 232(%rsp)
	jmp	.L428
.L116:
	subq	$16, 216(%rsp)
	movq	216(%rsp), %rax
	movq	$9, 8(%rax)
	movq	ec_@GOTPCREL(%rip), %rax
	movq	216(%rsp), %rdi
	cmpq	472(%rax), %rdi
	ja	.L1090
	movq	%rdi, (%rax)
	movq	240(%rsp), %rsi
	movq	%rsi, 24(%rax)
	movq	224(%rsp), %rdi
	movq	%rdi, 16(%rax)
	movq	%r13, 72(%rax)
	orl	$1073741824, 64(%rax)
	call	local_ov@PLT
	testl	%eax, %eax
	je	.L1091
	movq	256(%rsp), %rax
	movq	%rax, 248(%rsp)
	movq	272(%rsp), %rax
	movq	%rax, 280(%rsp)
	movq	240(%rsp), %r14
	movq	224(%rsp), %rax
	movq	%rax, 232(%rsp)
	jmp	.L411
	.p2align 4,,10
	.p2align 3
.L1091:
	movq	ec_@GOTPCREL(%rip), %rax
	andl	$-1073741825, 64(%rax)
.L1090:
	movq	%r13, %rax
	leaq	8(%r13), %r13
	movq	(%rax), %rax
	movq	256(%rsp), %rcx
	movq	%rcx, 248(%rsp)
	movq	272(%rsp), %rsi
	movq	%rsi, 280(%rsp)
	movq	240(%rsp), %r14
	movq	224(%rsp), %rdi
	movq	%rdi, 232(%rsp)
	jmp	.L428
.L117:
	subq	$16, 216(%rsp)
	movq	216(%rsp), %rax
	movq	$10, 8(%rax)
	movq	%r13, %rax
	leaq	8(%r13), %r13
	movq	(%rax), %rax
	movq	216(%rsp), %rcx
	movq	%rax, (%rcx)
	movq	ec_@GOTPCREL(%rip), %rax
	cmpq	472(%rax), %rcx
	ja	.L1092
	movq	%rcx, (%rax)
	movq	240(%rsp), %rcx
	movq	%rcx, 24(%rax)
	movq	224(%rsp), %rsi
	movq	%rsi, 16(%rax)
	movq	%r13, 72(%rax)
	orl	$1073741824, 64(%rax)
	call	local_ov@PLT
	testl	%eax, %eax
	je	.L1093
	movq	256(%rsp), %rax
	movq	%rax, 248(%rsp)
	movq	272(%rsp), %rax
	movq	%rax, 280(%rsp)
	movq	240(%rsp), %r14
	movq	224(%rsp), %rax
	movq	%rax, 232(%rsp)
	jmp	.L411
	.p2align 4,,10
	.p2align 3
.L1093:
	movq	ec_@GOTPCREL(%rip), %rax
	andl	$-1073741825, 64(%rax)
.L1092:
	movq	%r13, %rax
	leaq	8(%r13), %r13
	movq	(%rax), %rax
	movq	256(%rsp), %rdi
	movq	%rdi, 248(%rsp)
	movq	272(%rsp), %rcx
	movq	%rcx, 280(%rsp)
	movq	240(%rsp), %r14
	movq	224(%rsp), %rsi
	movq	%rsi, 232(%rsp)
	jmp	.L428
.L119:
	subq	$16, 216(%rsp)
	movq	216(%rsp), %rax
	movq	$11, 8(%rax)
	movq	%r13, %rax
	leaq	8(%r13), %r13
	movq	(%rax), %rax
	movq	216(%rsp), %rdi
	movq	%rax, (%rdi)
	movq	ec_@GOTPCREL(%rip), %rax
	cmpq	472(%rax), %rdi
	ja	.L1094
	movq	%rdi, (%rax)
	movq	240(%rsp), %rdi
	movq	%rdi, 24(%rax)
	movq	224(%rsp), %rcx
	movq	%rcx, 16(%rax)
	movq	%r13, 72(%rax)
	orl	$1073741824, 64(%rax)
	call	local_ov@PLT
	testl	%eax, %eax
	je	.L1095
	movq	256(%rsp), %rax
	movq	%rax, 248(%rsp)
	movq	272(%rsp), %rax
	movq	%rax, 280(%rsp)
	movq	240(%rsp), %r14
	movq	224(%rsp), %rax
	movq	%rax, 232(%rsp)
	jmp	.L411
	.p2align 4,,10
	.p2align 3
.L1095:
	movq	ec_@GOTPCREL(%rip), %rax
	andl	$-1073741825, 64(%rax)
.L1094:
	movq	%r13, %rax
	leaq	8(%r13), %r13
	movq	(%rax), %rax
	movq	256(%rsp), %rsi
	movq	%rsi, 248(%rsp)
	movq	272(%rsp), %rdi
	movq	%rdi, 280(%rsp)
	movq	240(%rsp), %r14
	movq	224(%rsp), %rcx
	movq	%rcx, 232(%rsp)
	jmp	.L428
.L120:
	subq	$16, 216(%rsp)
	movq	216(%rsp), %rax
	movq	$4, 8(%rax)
	movq	%r13, %rax
	leaq	8(%r13), %r13
	movq	(%rax), %rax
	movq	216(%rsp), %rsi
	movq	%rax, (%rsi)
	movq	ec_@GOTPCREL(%rip), %rax
	cmpq	472(%rax), %rsi
	ja	.L1096
	movq	%rsi, (%rax)
	movq	240(%rsp), %rsi
	movq	%rsi, 24(%rax)
	movq	224(%rsp), %rdi
	movq	%rdi, 16(%rax)
	movq	%r13, 72(%rax)
	orl	$1073741824, 64(%rax)
	call	local_ov@PLT
	testl	%eax, %eax
	je	.L1097
	movq	256(%rsp), %rax
	movq	%rax, 248(%rsp)
	movq	272(%rsp), %rax
	movq	%rax, 280(%rsp)
	movq	240(%rsp), %r14
	movq	224(%rsp), %rax
	movq	%rax, 232(%rsp)
	jmp	.L411
	.p2align 4,,10
	.p2align 3
.L1097:
	movq	ec_@GOTPCREL(%rip), %rax
	andl	$-1073741825, 64(%rax)
.L1096:
	movq	%r13, %rax
	leaq	8(%r13), %r13
	movq	(%rax), %rax
	movq	256(%rsp), %rcx
	movq	%rcx, 248(%rsp)
	movq	272(%rsp), %rsi
	movq	%rsi, 280(%rsp)
	movq	240(%rsp), %r14
	movq	224(%rsp), %rdi
	movq	%rdi, 232(%rsp)
	jmp	.L428
.L121:
	movq	224(%rsp), %rax
	movq	%rax, 264(%rsp)
	addq	$32, %rax
	movq	%rax, 232(%rsp)
	subq	$16, 216(%rsp)
	movq	216(%rsp), %rax
	movq	$0, 8(%rax)
	movq	264(%rsp), %rcx
	movq	%rcx, (%rax)
	movq	ec_@GOTPCREL(%rip), %rax
	movq	216(%rsp), %rsi
	cmpq	472(%rax), %rsi
	ja	.L1098
	movq	%rsi, (%rax)
	movq	240(%rsp), %rcx
	movq	%rcx, 24(%rax)
	movq	232(%rsp), %rsi
	movq	%rsi, 16(%rax)
	movq	%r13, 72(%rax)
	orl	$1073741824, 64(%rax)
	call	local_ov@PLT
	testl	%eax, %eax
	je	.L1099
	movq	256(%rsp), %rax
	movq	%rax, 248(%rsp)
	movq	272(%rsp), %rax
	movq	%rax, 280(%rsp)
	movq	240(%rsp), %r14
	jmp	.L411
	.p2align 4,,10
	.p2align 3
.L1099:
	movq	ec_@GOTPCREL(%rip), %rax
	andl	$-1073741825, 64(%rax)
.L1098:
	movq	%r13, %rax
	leaq	8(%r13), %r13
	movq	(%rax), %rax
	movq	256(%rsp), %rdi
	movq	%rdi, 248(%rsp)
	movq	272(%rsp), %rcx
	movq	%rcx, 280(%rsp)
	movq	240(%rsp), %r14
	jmp	.L428
.L122:
	movq	224(%rsp), %rbx
	subq	$16, 216(%rsp)
	movq	216(%rsp), %rax
	movq	$1, 8(%rax)
	movq	%rbx, (%rax)
	movq	ec_@GOTPCREL(%rip), %rax
	movq	216(%rsp), %rdi
	cmpq	472(%rax), %rdi
	ja	.L1100
	movq	%rdi, (%rax)
	movq	240(%rsp), %rsi
	movq	%rsi, 24(%rax)
	movq	%rbx, 16(%rax)
	movq	%r13, 72(%rax)
	orl	$1073741824, 64(%rax)
	call	local_ov@PLT
	testl	%eax, %eax
	je	.L1101
	movq	256(%rsp), %rax
	movq	%rax, 248(%rsp)
	movq	272(%rsp), %rax
	movq	%rax, 280(%rsp)
	movq	240(%rsp), %r14
	movq	224(%rsp), %rax
	movq	%rax, 232(%rsp)
	movq	%rbx, 264(%rsp)
	jmp	.L411
	.p2align 4,,10
	.p2align 3
.L1101:
	movq	ec_@GOTPCREL(%rip), %rax
	andl	$-1073741825, 64(%rax)
.L1100:
	movq	%r13, %rdx
	movq	0(%r13), %rax
	movq	%rax, 288(%rsp)
	movq	(%rax), %rax
	addq	$1, %rax
	salq	$4, %rax
	addq	224(%rsp), %rax
	movq	%rax, 232(%rsp)
	movq	288(%rsp), %rax
	movq	%rax, (%rbx)
	leaq	16(%rbx), %rax
	movq	%rax, 264(%rsp)
	movq	$11, 8(%rbx)
	leaq	16(%r13), %r13
	movq	8(%rdx), %rax
	movq	256(%rsp), %rcx
	movq	%rcx, 248(%rsp)
	movq	272(%rsp), %rsi
	movq	%rsi, 280(%rsp)
	movq	240(%rsp), %r14
	jmp	.L428
.L172:
	subq	$16, 216(%rsp)
	movq	216(%rsp), %rax
	movq	$10, 8(%rax)
	movq	%r13, %rax
	leaq	8(%r13), %r13
	movq	(%rax), %rax
	movq	216(%rsp), %rdi
	movq	%rax, (%rdi)
	movq	ec_@GOTPCREL(%rip), %rax
	cmpq	472(%rax), %rdi
	ja	.L1102
	movq	%rdi, (%rax)
	movq	240(%rsp), %rdi
	movq	%rdi, 24(%rax)
	movq	224(%rsp), %rcx
	movq	%rcx, 16(%rax)
	movq	%r13, 72(%rax)
	orl	$1073741824, 64(%rax)
	call	local_ov@PLT
	testl	%eax, %eax
	je	.L1103
	movq	256(%rsp), %rax
	movq	%rax, 248(%rsp)
	movq	272(%rsp), %rax
	movq	%rax, 280(%rsp)
	movq	240(%rsp), %r14
	movq	224(%rsp), %rax
	movq	%rax, 232(%rsp)
	jmp	.L411
	.p2align 4,,10
	.p2align 3
.L1103:
	movq	ec_@GOTPCREL(%rip), %rax
	andl	$-1073741825, 64(%rax)
.L1102:
	movq	%r13, %rax
	leaq	8(%r13), %r13
	movq	(%rax), %rax
	movq	256(%rsp), %rsi
	movq	%rsi, 248(%rsp)
	movq	272(%rsp), %rdi
	movq	%rdi, 280(%rsp)
	movq	240(%rsp), %r14
	movq	224(%rsp), %rcx
	movq	%rcx, 232(%rsp)
	jmp	.L428
.L138:
	movq	%r13, 312(%rsp)
	movq	0(%r13), %rdx
	movq	ec_@GOTPCREL(%rip), %rax
	movq	%rdx, 288(%rax)
	movq	8(%r13), %r13
	jmp	.L1104
.L202:
	movq	%r13, 312(%rsp)
	movq	0(%r13), %rdx
	movq	ec_@GOTPCREL(%rip), %rax
	movq	%rdx, 288(%rax)
	addq	$16, %r13
	jmp	.L1104
.L345:
	movq	%r13, 312(%rsp)
	movq	0(%r13), %rax
	orb	$2, %ah
	movq	ec_@GOTPCREL(%rip), %rdx
	movq	%rax, 288(%rdx)
	movq	8(%r13), %r13
	jmp	.L1104
.L137:
	movq	%r13, 312(%rsp)
	movq	%r13, %rax
	leaq	8(%r13), %r13
	movq	(%rax), %rdx
	movq	ec_@GOTPCREL(%rip), %rax
	movq	%rdx, 288(%rax)
.L1104:
	movq	ec_@GOTPCREL(%rip), %rax
	movq	48(%rax), %rax
	movq	-8(%rax), %rax
	leaq	40(%rax), %rbx
.L1105:
	movq	ec_@GOTPCREL(%rip), %rax
	cmpq	$0, 248(%rax)
	je	.L1106
	movq	$0, 320(%rax)
	movq	248(%rax), %rax
	movq	256(%rsp), %rsi
	cmpq	64(%rax), %rsi
	ja	.L1107
	movq	16(%rax), %rax
	movq	ec_@GOTPCREL(%rip), %rdx
	movq	%rax, 328(%rdx)
.L1107:
	movq	ec_@GOTPCREL(%rip), %rax
	movq	248(%rax), %rdx
	testq	%rdx, %rdx
	je	.L1108
	movq	256(%rsp), %rax
	cmpq	64(%rdx), %rax
	ja	.L1109
	movq	ec_@GOTPCREL(%rip), %rdi
	movq	%rdi, %rsi
.L1111:
	movq	320(%rdi), %rax
	cmpq	$1023, %rax
	jg	.L1110
	movq	16(%rdx), %r8
	movq	ec_@GOTPCREL(%rip), %rcx
	leaq	(%rax,%rax,2), %rax
	salq	$4, %rax
	addq	264(%rcx), %rax
	movq	%r8, (%rax)
	movq	96(%rdx), %r8
	movq	320(%rcx), %rax
	leaq	(%rax,%rax,2), %rax
	salq	$4, %rax
	addq	264(%rcx), %rax
	movq	%r8, 8(%rax)
	movq	128(%rdx), %r8
	movq	320(%rcx), %rax
	leaq	(%rax,%rax,2), %rax
	salq	$4, %rax
	addq	264(%rcx), %rax
	movq	%r8, 16(%rax)
	movq	320(%rcx), %rax
	leaq	(%rax,%rax,2), %rax
	salq	$4, %rax
	addq	264(%rcx), %rax
	movq	144(%rdx), %r8
	movq	%r8, 24(%rax)
	movq	320(%rcx), %rax
	leaq	(%rax,%rax,2), %rax
	salq	$4, %rax
	addq	264(%rcx), %rax
	movq	160(%rdx), %r8
	movq	%r8, 32(%rax)
	movq	320(%rcx), %rax
	leaq	(%rax,%rax,2), %rax
	salq	$4, %rax
	addq	264(%rcx), %rax
	movq	176(%rdx), %rcx
	movq	%rcx, 40(%rax)
.L1110:
	movq	80(%rdx), %rdx
	addq	$1, 320(%rsi)
	testq	%rdx, %rdx
	je	.L1108
	movq	256(%rsp), %rax
	cmpq	64(%rdx), %rax
	jbe	.L1111
	jmp	.L1109
.L2102:
	movq	ec_@GOTPCREL(%rip), %rdx
	movq	%rax, 312(%rdx)
	movq	$0, 304(%rdx)
	jmp	.L1112
.L1106:
	movq	ec_@GOTPCREL(%rip), %rax
	movq	$-1, 312(%rax)
	movq	$0, 320(%rax)
.L1112:
	movq	ec_@GOTPCREL(%rip), %rax
	movq	48(%rax), %rax
	leaq	-16(%rax), %rdx
	cmpq	%rdx, %rbx
	jae	.L1113
	movq	ec_@GOTPCREL(%rip), %rax
	addq	$736, %rax
.L1114:
	addq	$16, %rax
	addq	$16, %rbx
	movq	-16(%rbx), %rsi
	movq	-8(%rbx), %rdi
	movq	%rsi, -16(%rax)
	movq	%rdi, -8(%rax)
	cmpq	%rbx, %rdx
	ja	.L1114
.L1113:
	movq	ec_@GOTPCREL(%rip), %rax
	movq	48(%rax), %rax
	movq	-8(%rax), %r12
	movq	ec_@GOTPCREL(%rip), %rbp
	jmp	.L1115
	.p2align 4,,10
	.p2align 3
.L2603:
	movq	(%rdx), %rax
	andl	$3, %eax
	cmpq	$1, %rax
	je	.L1117
	cmpq	$1, %rax
	jg	.L1118
	testq	%rax, %rax
	je	.L1119
	.p2align 4,,4
	jmp	.L2603
	.p2align 4,,10
	.p2align 3
.L1118:
	cmpq	$2, %rax
	je	.L1120
	cmpq	$3, %rax
	.p2align 4,,3
	je	.L1121
	.p2align 4,,3
	jmp	.L2603
	.p2align 4,,10
	.p2align 3
.L1119:
	leaq	8(%rdx), %rax
	movq	ec_@GOTPCREL(%rip), %rcx
	movq	%rax, 8(%rcx)
	movq	(%rdx), %rax
	movq	%rax, (%rax)
	movabsq	$-9223372036854775553, %rdi
	movq	%rdi, 8(%rax)
	jmp	.L1115
	.p2align 4,,10
	.p2align 3
.L1117:
	movq	8(%rdx), %rdx
	movq	%rdx, (%rdx)
	movq	ec_@GOTPCREL(%rip), %rcx
	movq	8(%rcx), %rax
	movq	(%rax), %rax
	sarq	$2, %rax
	movabsq	$-6917529027641081857, %rsi
	andq	%rsi, %rax
	movq	%rax, 8(%rdx)
	addq	$16, 8(%rcx)
	jmp	.L1115
	.p2align 4,,10
	.p2align 3
.L1120:
	movq	ec_@GOTPCREL(%rip), %rsi
	leaq	8(%rdx), %rax
	movq	%rax, 8(%rsi)
	movq	(%rdx), %rax
	leaq	16(%rdx), %rcx
	movq	%rcx, 8(%rsi)
	movq	%rax, %rcx
	sarq	$8, %rcx
	movq	8(%rdx), %rdx
	leaq	(%rdx,%rcx,8), %rdx
	sarq	$4, %rax
	movq	%rax, %rcx
	andl	$15, %ecx
	movq	%rsi, %rdi
.L1123:
	movq	8(%rdi), %rax
	leaq	8(%rax), %rsi
	movq	%rsi, 8(%rdi)
	movq	(%rax), %rax
	movq	%rax, (%rdx)
	addq	$8, %rdx
	subq	$1, %rcx
	cmpq	$-1, %rcx
	jne	.L1123
	jmp	.L1115
	.p2align 4,,10
	.p2align 3
.L1121:
	movq	ec_@GOTPCREL(%rip), %rbx
	movq	272(%rsp), %rax
	movq	%rax, 32(%rbx)
	movq	256(%rsp), %rax
	movq	%rax, 40(%rbx)
	movq	216(%rsp), %rax
	movq	%rax, (%rbx)
	movq	240(%rsp), %rax
	movq	%rax, 24(%rbx)
	movq	224(%rsp), %rax
	movq	%rax, 16(%rbx)
	movq	%r13, 72(%rbx)
	orl	$1073741824, 64(%rbx)
	movq	8(%rbx), %rdi
	xorl	%esi, %esi
	call	untrail_ext@PLT
	movq	16(%rbx), %rax
	movq	%rax, 224(%rsp)
	andl	$-1073741825, 64(%rbx)
	movq	8(%rbx), %rdx
	movq	(%rdx), %rax
	shrq	$5, %rax
	andl	$134217720, %eax
	addq	%rdx, %rax
	movq	%rax, 8(%rbx)
.L1115:
	movq	8(%rbp), %rdx
	cmpq	16(%r12), %rdx
	jb	.L2603
	movq	(%r12), %rax
	movq	%rax, 280(%rsp)
	movq	24(%r12), %r14
	movq	32(%r12), %rdx
	movq	ec_@GOTPCREL(%rip), %rax
	movq	%rdx, 88(%rax)
	movq	8(%r12), %rdi
	movq	%rdi, 248(%rsp)
	cmpq	416(%rax), %rdi
	jae	.L1125
	movq	%rdi, 416(%rax)
	movq	608(%rax), %rdx
	salq	$4, %rdx
	addq	%rdi, %rdx
	movq	448(%rax), %rcx
	cmpq	%rdx, %rcx
	cmovb	%rcx, %rdx
	movq	%rdx, 432(%rax)
	movl	$0, 440(%rax)
	movq	424(%rax), %rax
	testq	%rax, %rax
	je	.L1125
	movq	ec_@GOTPCREL(%rip), %rax
	movq	%rdx, 424(%rax)
	movl	440(%rax), %eax
	testl	%eax, %eax
	je	.L1125
	movq	ec_@GOTPCREL(%rip), %rax
	movq	$0, 424(%rax)
.L1125:
	movq	ec_@GOTPCREL(%rip), %rax
	movq	$0, 96(%rax)
	movq	$0, 80(%rax)
	cmpq	$0, 320(%rax)
	jle	.L1126
	testb	$16, 336(%rax)
	jne	.L1127
.L1126:
	movq	ec_@GOTPCREL(%rip), %rax
	movq	248(%rax), %rax
	testq	%rax, %rax
	je	.L1128
	movq	ec_@GOTPCREL(%rip), %rdx
	movq	48(%rax), %rdi
	cmpq	%rdi, 312(%rdx)
	je	.L1129
	testb	$8, 336(%rdx)
	jne	.L1127
.L1129:
	movq	8(%rax), %rdx
	testb	$3, %dh
	jne	.L1128
	testb	$8, %dh
	jne	.L1130
	movq	ec_@GOTPCREL(%rip), %rcx
	movq	288(%rcx), %rcx
	testb	$63, %cl
	je	.L1130
	andl	$63, %ecx
	subl	$1, %ecx
	movl	$1, %esi
	sall	%cl, %esi
	movslq	%esi, %rcx
	movq	ec_@GOTPCREL(%rip), %rsi
	testq	%rcx, 336(%rsi)
	jne	.L1127
.L1130:
	andb	$247, %dh
	movq	%rdx, 8(%rax)
.L1128:
	movq	-8(%r12), %rax
	movq	(%rax), %rdx
	movq	8(%rax), %rcx
	movq	ec_@GOTPCREL(%rip), %rax
	movq	%r12, 48(%rax)
	movq	%r13, %rax
	leaq	8(%r13), %r13
	movq	(%rax), %rax
	movq	248(%rsp), %rsi
	movq	%rsi, 232(%rsp)
	movq	%rcx, 248(%rsp)
	movq	280(%rsp), %rcx
	movq	%rcx, 216(%rsp)
	movq	%rdx, 280(%rsp)
	movl	$1, 308(%rsp)
	jmp	.L428
.L1127:
	movq	ec_@GOTPCREL(%rip), %rax
	movq	48(%rax), %rax
	movq	312(%rsp), %rdi
	leaq	-8(%rdi), %rdx
	movq	%rdx, -16(%rax)
	movq	248(%rsp), %rax
	addq	$16, %rax
	movq	%rax, 232(%rsp)
	movq	248(%rsp), %rax
	movq	$9, 8(%rax)
	movl	$1, 308(%rsp)
	jmp	.L1131
.L2289:
	movl	$0, 308(%rsp)
.L1131:
	movq	ec_@GOTPCREL(%rip), %rax
	movq	248(%rax), %rax
	testq	%rax, %rax
	jne	.L1195
	jmp	.L1132
.L2290:
	movl	$0, 308(%rsp)
	jmp	.L1195
.L2291:
	movl	$0, 308(%rsp)
.L1195:
	orq	$2048, 8(%rax)
.L1132:
	movq	280(%rsp), %rax
	movq	ec_@GOTPCREL(%rip), %rdx
	testb	$2, 289(%rdx)
	jne	.L1133
	subq	$8, %rax
	movq	280(%rsp), %rcx
	movq	%r14, -8(%rcx)
	movq	%rax, %r14
.L1133:
	leaq	-8(%rax), %rsi
	movq	%rsi, 216(%rsp)
	movq	fail_return_env_0_@GOTPCREL(%rip), %rdx
	addq	$8, %rdx
	movq	%rdx, -8(%rax)
	movq	ec_@GOTPCREL(%rip), %rax
	cmpq	472(%rax), %rsi
	ja	.L1134
	movq	%rsi, (%rax)
	movq	%r14, 24(%rax)
	movq	232(%rsp), %rdi
	movq	%rdi, 16(%rax)
	movq	%r13, 72(%rax)
	orl	$1073741824, 64(%rax)
	call	local_ov@PLT
	testl	%eax, %eax
	jne	.L411
	movq	ec_@GOTPCREL(%rip), %rax
	andl	$-1073741825, 64(%rax)
.L1134:
	movq	error_handler_@GOTPCREL(%rip), %rax
	movq	(%rax), %rax
	movq	2040(%rax), %rax
	movq	(%rax), %r13
	movq	ec_@GOTPCREL(%rip), %rax
	movq	248(%rax), %rdx
	movq	256(%rax), %rcx
	movq	%rdx, 736(%rax)
	movq	%rcx, 744(%rax)
	movq	$10, 760(%rax)
	movq	320(%rax), %rdx
	movq	%rdx, 752(%rax)
	movq	$10, 776(%rax)
	movq	312(%rax), %rdx
	movq	%rdx, 768(%rax)
	movq	$10, 792(%rax)
	movq	$5, 784(%rax)
	movq	$10, 808(%rax)
	movq	288(%rax), %rdx
	andl	$63, %edx
	movq	%rdx, 800(%rax)
	movq	%r13, %rax
	leaq	8(%r13), %r13
	movq	(%rax), %rax
	movl	$1, 308(%rsp)
	jmp	.L428
.L271:
	movq	8(%r13), %rsi
	leaq	24(%r13), %rcx
	movq	%rcx, 312(%rsp)
	movq	16(%r13), %rdx
	testq	%rdx, %rdx
	jne	.L1136
	movq	ec_@GOTPCREL(%rip), %rax
	cmpq	$0, 744(%rax)
	jns	.L2286
	movq	%rax, %rdx
	leaq	736(%rax), %rax
	cmpq	%rax, 736(%rdx)
	jne	.L1138
	movq	%rdx, %rax
	addq	$736, %rax
	jmp	.L1137
	.p2align 4,,10
	.p2align 3
.L1136:
	movq	0(%r13), %rbx
	movq	(%rdx,%rbx,8), %r13
	jmp	.L1139
.L1138:
	movq	ec_@GOTPCREL(%rip), %rax
	addq	$736, %rax
.L1140:
	movq	(%rax), %rax
	cmpq	$0, 8(%rax)
	jns	.L1137
	cmpq	%rax, (%rax)
	jne	.L1140
	jmp	.L1137
.L2286:
	movq	ec_@GOTPCREL(%rip), %rax
	addq	$736, %rax
.L1137:
	movq	(%rax), %rax
	movq	ec_@GOTPCREL(%rip), %rdx
	movq	%rax, 736(%rdx)
	movq	%rax, %rbx
	movq	$10, 744(%rdx)
	movq	fork_unify_code_@GOTPCREL(%rip), %rax
	movq	(%rax), %r13
.L1139:
	movq	ec_@GOTPCREL(%rip), %rdx
	movq	48(%rdx), %rax
	movq	216(%rsp), %rdi
	movq	%rdi, (%rax)
	movq	224(%rsp), %rcx
	movq	%rcx, 248(%rsp)
	movq	%rcx, %rdi
	movq	%rcx, 8(%rax)
	leaq	16(%rcx), %rcx
	movq	%rcx, 232(%rsp)
	movq	$9, 8(%rdi)
	movq	232(%rsp), %rdi
	cmpq	416(%rdx), %rdi
	jae	.L1141
	movq	%rdi, 416(%rdx)
	movq	608(%rdx), %rcx
	salq	$4, %rcx
	addq	%rdi, %rcx
	movq	448(%rdx), %rdi
	cmpq	%rcx, %rdi
	cmovb	%rdi, %rcx
	movq	%rcx, 432(%rdx)
	movl	$0, 440(%rdx)
	movq	424(%rdx), %rdx
	testq	%rdx, %rdx
	je	.L1141
	movq	ec_@GOTPCREL(%rip), %rdx
	movq	%rcx, 424(%rdx)
	movl	440(%rdx), %edx
	testl	%edx, %edx
	je	.L1141
	movq	ec_@GOTPCREL(%rip), %rdx
	movq	$0, 424(%rdx)
.L1141:
	movq	ec_@GOTPCREL(%rip), %rdx
	movq	8(%rdx), %rcx
	movq	%rcx, 16(%rax)
	movq	240(%rsp), %rdi
	movq	%rdi, 24(%rax)
	movq	88(%rdx), %rdx
	movq	%rdx, 32(%rax)
	movq	%rbx, 40(%rax)
	movq	$0, 48(%rax)
	leaq	80(%rax), %rdx
	testq	%rsi, %rsi
	jle	.L2287
	movq	%rsi, %rcx
	movq	%rdx, %rax
	movq	ec_@GOTPCREL(%rip), %rdi
	leaq	736(%rdi), %r12
.L1144:
	addq	$16, %rax
	addq	$16, %r12
	movq	-16(%r12), %rdi
	movq	-8(%r12), %rbp
	movq	%rdi, -16(%rax)
	movq	%rbp, -8(%rax)
	subq	$1, %rcx
	jne	.L1144
	movq	%rsi, %rax
	salq	$4, %rax
	addq	%rax, %rdx
	jmp	.L1142
.L2287:
	movq	ec_@GOTPCREL(%rip), %rax
	leaq	736(%rax), %r12
.L1142:
	movq	312(%rsp), %rax
	movq	%rax, (%rdx)
	movq	ec_@GOTPCREL(%rip), %rax
	movq	48(%rax), %rcx
	movq	%rcx, 8(%rdx)
	addq	$16, %rdx
	movq	%rdx, 48(%rax)
	cmpq	464(%rax), %rdx
	jb	.L1145
	movq	216(%rsp), %rsi
	movq	%rsi, (%rax)
	movq	240(%rsp), %rsi
	movq	%rsi, 24(%rax)
	movq	232(%rsp), %rsi
	movq	%rsi, 16(%rax)
	movq	%r13, 72(%rax)
	orl	$1073741824, 64(%rax)
	call	control_ov@PLT
	testl	%eax, %eax
	je	.L1146
	movq	240(%rsp), %r14
	movl	$0, 308(%rsp)
	movq	216(%rsp), %rax
	movq	%rax, 280(%rsp)
	jmp	.L411
	.p2align 4,,10
	.p2align 3
.L1146:
	movq	ec_@GOTPCREL(%rip), %rax
	andl	$-1073741825, 64(%rax)
.L1145:
	movq	ec_@GOTPCREL(%rip), %rax
	cmpq	$0, 184(%rax)
	je	.L1147
	cmpq	$1, %rbx
	jbe	.L1147
	cmpq	$0, 232(%rax)
	jne	.L1147
	movl	192(%rax), %eax
	testl	%eax, %eax
	jne	.L1148
	movq	ec_@GOTPCREL(%rip), %rdx
	movq	5024(%rdx), %rax
	movl	56(%rax), %eax
	movl	%eax, 192(%rdx)
	testl	%eax, %eax
	jns	.L1149
	movq	it_disabled_@GOTPCREL(%rip), %rdx
	movl	(%rdx), %eax
	addl	$1, %eax
	movl	%eax, (%rdx)
	movq	ec_@GOTPCREL(%rip), %rcx
	movl	68(%rcx), %eax
	orl	$8, %eax
	movl	%eax, 68(%rcx)
	subl	$1, (%rdx)
	jne	.L1150
	movq	delayed_it_@GOTPCREL(%rip), %rax
	movl	(%rax), %eax
	testl	%eax, %eax
	je	.L1150
	movq	delayed_irq_func@GOTPCREL(%rip), %rax
	call	*(%rax)
.L1150:
	movq	ec_@GOTPCREL(%rip), %rax
	movq	$0, 424(%rax)
	jmp	.L1147
.L1149:
	movq	ec_@GOTPCREL(%rip), %rbx
	movq	216(%rsp), %rax
	movq	%rax, (%rbx)
	movq	240(%rsp), %rax
	movq	%rax, 24(%rbx)
	movq	232(%rsp), %rax
	movq	%rax, 16(%rbx)
	movq	%r13, 72(%rbx)
	orl	$1073741824, 64(%rbx)
	movq	184(%rbx), %rdi
	xorl	%eax, %eax
	call	sch_load_report@PLT
	andl	$-1073741825, 64(%rbx)
	jmp	.L1147
.L1148:
	testl	%eax, %eax
	jns	.L1151
	movq	it_disabled_@GOTPCREL(%rip), %rdx
	movl	(%rdx), %eax
	addl	$1, %eax
	movl	%eax, (%rdx)
	movq	ec_@GOTPCREL(%rip), %rcx
	movl	68(%rcx), %eax
	andl	$-9, %eax
	movl	%eax, 68(%rcx)
	subl	$1, (%rdx)
	jne	.L1152
	movq	delayed_it_@GOTPCREL(%rip), %rax
	movl	(%rax), %eax
	testl	%eax, %eax
	je	.L1152
	movq	delayed_irq_func@GOTPCREL(%rip), %rax
	call	*(%rax)
.L1152:
	movq	ec_@GOTPCREL(%rip), %rbx
	movl	$2, 192(%rbx)
	movq	216(%rsp), %rax
	movq	%rax, (%rbx)
	movq	240(%rsp), %rax
	movq	%rax, 24(%rbx)
	movq	232(%rsp), %rax
	movq	%rax, 16(%rbx)
	movq	%r13, 72(%rbx)
	orl	$1073741824, 64(%rbx)
	movq	184(%rbx), %rdi
	xorl	%eax, %eax
	call	sch_load_report@PLT
	andl	$-1073741825, 64(%rbx)
	jmp	.L1147
.L1151:
	addl	$1, %eax
	movq	ec_@GOTPCREL(%rip), %rdx
	movl	%eax, 192(%rdx)
.L1147:
	movq	%r13, %rax
	leaq	8(%r13), %r13
	movq	(%rax), %rax
	movq	216(%rsp), %rsi
	movq	%rsi, 280(%rsp)
	movq	240(%rsp), %r14
	movl	$0, 308(%rsp)
	jmp	.L428
.L272:
	movq	ec_@GOTPCREL(%rip), %rax
	movq	48(%rax), %rax
	movq	-8(%rax), %rax
	movq	40(%rax), %rsi
	leaq	-1(%rsi), %rdx
	leaq	80(%rax), %rbx
	movq	0(%r13), %rcx
	testq	%rcx, %rcx
	je	.L1153
	movq	(%rcx,%rdx,8), %r13
	jmp	.L1154
.L1153:
	movq	fork_unify_code_@GOTPCREL(%rip), %rcx
	movq	(%rcx), %r13
	movq	$10, 88(%rax)
	movq	%rdx, 80(%rax)
.L1154:
	cmpq	$1, %rdx
	jle	.L1155
	movq	%rdx, 40(%rax)
	movq	ec_@GOTPCREL(%rip), %rax
	movq	$0, 288(%rax)
	movl	192(%rax), %edx
	testl	%edx, %edx
	jns	.L1156
	movq	5024(%rax), %rdx
	movl	56(%rdx), %edx
	movl	%edx, 192(%rax)
.L1156:
	movq	ec_@GOTPCREL(%rip), %rax
	movq	48(%rax), %rax
	movq	-16(%rax), %rax
	movq	%rax, 312(%rsp)
	jmp	.L1157
.L1155:
	movq	ec_@GOTPCREL(%rip), %rax
	movq	$0, 288(%rax)
	movl	192(%rax), %eax
	testl	%eax, %eax
	jns	.L1158
	movq	it_disabled_@GOTPCREL(%rip), %rdx
	movl	(%rdx), %eax
	addl	$1, %eax
	movl	%eax, (%rdx)
	movq	ec_@GOTPCREL(%rip), %rcx
	movl	68(%rcx), %eax
	andl	$-9, %eax
	movl	%eax, 68(%rcx)
	subl	$1, (%rdx)
	jne	.L1159
	movq	delayed_it_@GOTPCREL(%rip), %rax
